(dp0
S'Canada'
p1
(F83.0956562
F-52.6206965
tp2
sS'Virginia, USA'
p3
(F39.466012
F-75.2421573
tp4
sS'austin tx'
p5
(F30.516863
F-97.5684199
tp6
sS'Halifax, Nova Scotia'
p7
(F44.7035313
F-63.5576784
tp8
sS'Bologna'
p9
(F44.5561987
F11.4337169
tp10
sS'LA '
p11
(F22.5028719
F107.6948299
tp12
sS'Fort Wayne, IN'
p13
(F41.1997791
F-84.998627
tp14
sS'New York '
p15
(F40.9152555
F-73.70027209999999
tp16
sS'Madison WI'
p17
(F43.171916
F-89.24645199999999
tp18
sS'California, USA'
p19
(F42.0095169
F-114.1313927
tp20
sS'Devon. ENGLAND'
p21
(F51.2461983
F-2.8866405
tp22
sS'Bend, OR'
p23
(F44.1231839
F-121.2485789
tp24
sS'Scottsbluff, NE'
p25
(F41.8916759
F-103.6267971
tp26
sS'Cold Bay, Alaska, USA'
p27
(F55.28066099999999
F-162.5870488
tp28
sS'Wells,Maine'
p29
(F43.39134600000001
F-70.5394112
tp30
sS'NYC'
p31
(F40.9152555
F-73.70027209999999
tp32
sS'Maui, Hawaii'
p33
(F21.2238323
F-155.9788256
tp34
sS'Louisiana'
p35
(F33.019525
F-88.8162401
tp36
sS'Belfast. Houston. France.'
p37
(F54.65920999999999
F-5.808004599999999
tp38
sS'Cleveland, Ohio.'
p39
(F41.5992572
F-81.532744
tp40
sS'Victoria, BC'
p41
(F48.450518
F-123.322346
tp42
sS'falls church, VA'
p43
(F38.8998318
F-77.149789
tp44
sS'Toronto, Ontario'
p45
(F43.8554579
F-79.1168971
tp46
sS'Panam\xc3\xa1'
p47
(F9.6477793
F-77.1584881
tp48
sS'New Brunswick, NJ'
p49
(F40.509268
F-74.39304500000001
tp50
sS'West Coast So Cal'
p51
(F33.7907908
F-118.1923905
tp52
sS'Marietta,Ga,USA'
p53
(F34.0011701
F-84.46793799999999
tp54
sS'Dark Castle Town'
p55
(F29.575157
F-98.52134500000001
tp56
sS'The Greater DC Area'
p57
(F51.5435369
F-0.1243594
tp58
sS'Lagos,Nigeria.'
p59
(F6.7027983
F3.6967277
tp60
sS'Atlanta'
p61
(F33.8876179
F-84.289389
tp62
sS'Avon Lake, Ohio   USA'
p63
(F41.5157218
F-81.96828699999999
tp64
sS'Massachusetts'
p65
(F42.88679
F-69.9285512
tp66
sS'Athens, Greece'
p67
(F38.0328563
F23.7896925
tp68
sS'hiram,georgia'
p69
(F33.91209
F-84.73143809999999
tp70
sS'Frederick, MD'
p71
(F39.4885431
F-77.3602332
tp72
sS'Buffalo, NY '
p73
(F42.966455
F-78.79515710000001
tp74
sS'West of the Wasatch'
p75
(F40.6909481
F-110.8917821
tp76
sS'Cottonwood, AZ'
p77
(F34.7650321
F-111.948781
tp78
sS'MUMBAI     INDIA'
p79
(F19.2716338
F72.9864994
tp80
sS'Burlington, North Carolina'
p81
(F36.127216
F-79.3794489
tp82
sS'Alaska'
p83
(F71.3868712
F-129.9945563
tp84
sS'Fort Lauderdale, FL'
p85
(F26.2116658
F-80.09597699999999
tp86
sS'LV-426'
p87
(F35.5417534
F-77.7898222
tp88
sS'Florida, USA'
p89
(F31.000968
F-80.0311371
tp90
sS'Fort Myers Beach, FL'
p91
(F26.4654557
F-81.881868
tp92
sS'San Antonio, TX USA'
p93
(F29.73872
F-98.22295799999999
tp94
sS'Jacksonville fl'
p95
(F30.5862321
F-81.3914121
tp96
sS'North Myrtle Beach, SC, USA'
p97
(F33.8609651
F-78.6013141
tp98
sS'Lafayette,  Indiana'
p99
(F40.454479
F-86.7903269
tp100
sS'norfolk'
p101
(F36.9692977
F-76.17690499999999
tp102
sS'Ljubljana,Slovenija'
p103
(F46.1422017
F14.6446963
tp104
sS'Kentucky, USA'
p105
(F39.1474581
F-81.9649709
tp106
sS'Montgomery, AL '
p107
(F32.437677
F-86.07220509999999
tp108
sS'Edmonton'
p109
(F53.7161
F-113.2731591
tp110
sS'St Paul, MN'
p111
(F44.9920161
F-93.0043199
tp112
sS'TrumpTown'
p113
(F36.94645939999999
F-76.714246
tp114
sS'Chignahuapan, Puebla, M\xc3\xa9xico.'
p115
(F19.8555107
F-98.0114048
tp116
sS'Abingdon, VA'
p117
(F36.732008
F-81.9179439
tp118
sS'the great U S A '
p119
(F47.549802
F-111.1992089
tp120
sS'massachusetts'
p121
(F42.88679
F-69.9285512
tp122
sS'Seattle'
p123
(F47.7341451
F-122.2359033
tp124
sS'Frisco, CO'
p125
(F39.5991239
F-106.064288
tp126
sS'the village'
p127
(F53.77450589999999
F-0.3563441
tp128
sS'Highlands Ranch, CO'
p129
(F39.5662499
F-104.9004211
tp130
sS'Saco, Maine'
p131
(F43.606822
F-70.35664299999999
tp132
sS'Bergen, Norway'
p133
(F60.52683889999999
F5.6877643
tp134
sS'Space Coast Florida'
p135
(F28.1011754
F-80.6004951
tp136
sS'San Antonio, TX'
p137
(F29.73872
F-98.22295799999999
tp138
sS'Denver'
p139
(F39.91424689999999
F-104.600296
tp140
sS'Lebanon, OH'
p141
(F39.4675969
F-84.160212
tp142
sS'M5'
p143
(F42.55427940000001
F-83.44552689999999
tp144
sS'Wayne, NJ'
p145
(F41.0140242
F-74.19554099999999
tp146
sS'the cutting edge'
p147
(F57.1477865
F-2.1081026
tp148
sS'The Milky Way'
p149
(F42.9966132
F-89.56468819999999
tp150
sS'Rockville, MD'
p151
(F39.120714
F-77.09199579999999
tp152
sS'South Louisiana'
p153
(F33.019525
F-88.8162401
tp154
sS'Maryland'
p155
(F39.7230371
F-75.0491813
tp156
sS'Karachi, Pakistan'
p157
(F25.2483831
F67.4684518
tp158
sS'Humboldt County Nevada'
p159
(F42.0004391
F-117.0175881
tp160
sS'Queens, NY'
p161
(F40.80076
F-73.70027209999999
tp162
sS'Arizona'
p163
(F37.0042599
F-109.0452231
tp164
sS'Laguna Beach, CA 92651'
p165
(F33.612393
F-117.7302181
tp166
sS'chicago'
p167
(F42.0231311
F-87.52404399999999
tp168
sS'Frederick, Maryland'
p169
(F39.4885431
F-77.3602332
tp170
sS'Lake Worth, Florida'
p171
(F26.646598
F-80.0364637
tp172
sS'United States of America'
p173
(F71.3867745
F-66.9502861
tp174
sS'Boise'
p175
(F43.6898951
F-116.1019091
tp176
sS'Huntsville, AL'
p177
(F34.8652061
F-86.413795
tp178
sS'J follows & hails me respondi\xc3\xb3'
p179
(F31.8882506
F-89.7437559
tp180
sS'Ottawa, Ontario'
p181
(F45.5375801
F-75.2465979
tp182
sS'America'
p183
(F71.3867745
F-66.9502861
tp184
sS'Tennessee, USA'
p185
(F36.678118
F-81.6469001
tp186
sS'Redmond, WA'
p187
(F47.717119
F-122.0367329
tp188
sS'New York, USA'
p189
(F40.9152555
F-73.70027209999999
tp190
sS'Paris, KY'
p191
(F38.238271
F-84.232089
tp192
sS'Hallam, PA'
p193
(F40.0594131
F-76.5125695
tp194
sS'here'
p195
(F43.56487389999999
F0.01587
tp196
sS'Olathe, KS'
p197
(F38.9877561
F-94.7140479
tp198
sS'Liverpool'
p199
(F53.503907
F-2.8129382
tp200
sS'houston mo'
p201
(F37.34375989999999
F-91.93093999999999
tp202
sS'Suisun City'
p203
(F38.2650301
F-121.9699006
tp204
sS'Detroit, Michigan, USA '
p205
(F42.4502301
F-82.910451
tp206
sS'Ohio'
p207
(F41.9773019
F-80.5182
tp208
sS'Canada, urban west'
p209
(F45.495351
F-73.58061579999999
tp210
sS'virginia beach'
p211
(F36.9845247
F-75.86758189999999
tp212
sS'Seminole, Fl'
p213
(F27.875832
F-82.7538411
tp214
sS'Jacmel '
p215
(F18.2581035
F-72.5118159
tp216
sS'This great country, USA.'
p217
(F38.2387343
F-76.50841199999999
tp218
sS'Portugal'
p219
(F42.1540125
F-6.1902091
tp220
sS'Colleyville, TX'
p221
(F32.9237398
F-97.09977699999999
tp222
sS'MI'
p223
(F48.1986462
F-82.413474
tp224
sS'Hampton Roads, Va'
p225
(F37.015333
F-76.26503459999999
tp226
sS'Chicago Area'
p227
(F42.371833
F-88.123464
tp228
sS'Pittsburgh PA - USA'
p229
(F40.5013681
F-79.8657231
tp230
sS'In the dark..........'
p231
(F41.2480959
F-76.0462287
tp232
sS'The universe'
p233
(F42.7486294
F-77.41146119999999
tp234
sS'Las Vegas'
p235
(F36.336407
F-114.8763719
tp236
sS'Washington state'
p237
(F49.0024305
F-116.91558
tp238
sS'Social Circle, GA'
p239
(F33.685046
F-83.66552
tp240
sS'St. Louis, Mo.'
p241
(F38.77434909999999
F-90.166409
tp242
sS'Maine'
p243
(F47.4596735
F-66.9453971
tp244
sS'Columbus, Georgia'
p245
(F32.6081215
F-84.667463
tp246
sS'S TX'
p247
(F36.5007041
F-93.5080389
tp248
sS'Amarillo, TX'
p249
(F35.294475
F-101.653684
tp250
sS'Prague, Czech Rep.'
p251
(F50.177403
F14.7067946
tp252
sS'Delray Beach, Florida'
p253
(F26.4914608
F-80.0557784
tp254
sS'Pasadena, Tx'
p255
(F29.739927
F-94.982734
tp256
sS'San Luis Obispo, Ca.'
p257
(F35.3119901
F-120.6177951
tp258
sS'San Bernardino, CA'
p259
(F34.2476399
F-117.1649721
tp260
sS'Costa Rica'
p261
(F11.2196808
F-82.55265709999999
tp262
sS'Jeddah, Saudi Arabia'
p263
(F21.9048262
F39.3928528
tp264
sS'Florida, #imwithher#nevertrump'
p265
(F31.000968
F-80.0311371
tp266
sS'SE Iowa'
p267
(F43.5011961
F-90.140061
tp268
sS'Scottsdale'
p269
(F33.900393
F-111.756092
tp270
sS'Lewisburg, TN'
p271
(F35.488549
F-86.727924
tp272
sS'Alberta'
p273
(F60.00006209999999
F-109.9998551
tp274
sS'Milton, ON, Canada'
p275
(F43.6289901
F-79.724508
tp276
sS'Roseville, Caifornia'
p277
(F38.810356
F-121.184654
tp278
sS'Dunnellon, Fl'
p279
(F29.0802951
F-82.4046911
tp280
sS'Bonham Texas'
p281
(F33.621481
F-96.13807299999999
tp282
sS'Richmond Hill, Canada'
p283
(F43.977785
F-79.37101
tp284
sS'Australia'
p285
(F-9.2198214
F159.2557541
tp286
sS'usa'
p287
(F71.3867745
F-66.9502861
tp288
sS'Southern California '
p289
(F35.8092361
F-114.131211
tp290
sS'Bay Area, Balifornia'
p291
(F38.8642448
F-121.208178
tp292
sS'Toronto, Ontario, Canada'
p293
(F43.8554579
F-79.1168971
tp294
sS'Davis CA '
p295
(F38.578756
F-121.6756134
tp296
sS'cali'
p297
(F3.505554
F-76.46082500000001
tp298
sS'Tabasco, M\xc3\xa9xico'
p299
(F18.6502994
F-90.98745919999999
tp300
sS'Swansea, MA'
p301
(F41.816699
F-71.153436
tp302
sS'Regina, SK'
p303
(F50.5207396
F-104.4924258
tp304
sS'Queen City'
p305
(F39.2207591
F-84.3687549
tp306
sS'Indiana & Florida '
p307
(F41.7606971
F-84.784662
tp308
sS'Hong Kong'
p309
(F22.561968
F114.4069573
tp310
sS'Chicago, Illinois, USA'
p311
(F42.0231311
F-87.52404399999999
tp312
sS'Chennai '
p313
(F13.2611661
F80.33632279999999
tp314
sS'Grand Blanc, MI'
p315
(F42.938524
F-83.59037599999999
tp316
sS'Atlanta, TX'
p317
(F33.145496
F-94.1232271
tp318
sS'New Delhi'
p319
(F28.6504799
F77.34496
tp320
sS'San Francisco, CA'
p321
(F37.9297708
F-122.3279149
tp322
sS'Philippines'
p323
(F19.5738013
F126.6043836
tp324
sS'93301'
p325
(F35.404893
F-119.002528
tp326
sS'Nicholasville, Ky'
p327
(F37.9633161
F-84.506815
tp328
sS'Georgia, USA'
p329
(F35.00065900000001
F-80.8407866
tp330
sS'Philadelphia, PA'
p331
(F40.13799179999999
F-74.95576299999999
tp332
sS'Louisville, KY'
p333
(F38.3805101
F-85.40509999999999
tp334
sS'World wide'
p335
(F22.2828053
F114.157939
tp336
sS'Chicago, IL, Morseville, IL'
p337
(F41.682014
F-88.0563241
tp338
sS'S P A C E'
p339
(F51.5342123
F7.1376763
tp340
sS'kampala'
p341
(F0.413199
F32.6892796
tp342
sS'Charlottesville, VA'
p343
(F38.0705911
F-78.446311
tp344
sS'Salem Oregon'
p345
(F45.012341
F-122.9337039
tp346
sS'mn'
p347
(F49.3828205
F-89.49183339999999
tp348
sS'Lebanon'
p349
(F34.69209
F36.62372
tp350
sS'Cincinnati, OH'
p351
(F39.2207591
F-84.3687549
tp352
sS'Blue Grass of Kentucky'
p353
(F39.1474581
F-81.9649709
tp354
sS'Portland, OR'
p355
(F45.65248
F-122.4718489
tp356
sS'Langley, Washington'
p357
(F48.0434827
F-122.3879313
tp358
sS'Birmingham'
p359
(F33.6787149
F-86.5781499
tp360
sS' America  '
p361
(F71.3867745
F-66.9502861
tp362
sS'Sao Paulo, Brazil'
p363
(F-23.3566039
F-46.36508449999999
tp364
sS'NYC, TKY, AMS, LON'
p365
(F40.9152555
F-73.70027209999999
tp366
sS'CT.'
p367
(F42.050587
F-71.7872391
tp368
sS'Macungie, PA'
p369
(F40.5293651
F-75.540566
tp370
sS'M\xc3\xa9xico'
p371
(F32.7187629
F-86.7105711
tp372
sS'Fort Wayne, IN, USA'
p373
(F41.1997791
F-84.998627
tp374
sS'Rockville, MD, USA'
p375
(F39.120714
F-77.09199579999999
tp376
sS'Ohio, USA'
p377
(F41.9773019
F-80.5182
tp378
sS'Raleigh, NC'
p379
(F35.9717279
F-78.471063
tp380
sS'Bellville, South Africa'
p381
(F-33.8298109
F18.677551
tp382
sS'weymouth massachusetts'
p383
(F42.2809489
F-70.91017939999999
tp384
sS'Scottsdale, Az'
p385
(F33.900393
F-111.756092
tp386
sS'Denver,Co Lajolla,ca '
p387
(F39.91424689999999
F-104.600296
tp388
sS'Marte '
p389
(F25.6761535
F-100.2486614
tp390
sS'221B Baker Street'
p391
(F51.5238059
F-0.1584654
tp392
sS'Harbor City, CA'
p393
(F33.816916
F-118.2804042
tp394
sS'Rochester, MI'
p395
(F42.7044
F-83.0938159
tp396
sS'Washington DC'
p397
(F38.995548
F-76.909393
tp398
sS' Boston MA #Followback'
p399
(F42.3988669
F-70.9232011
tp400
sS'North Carolina, USA'
p401
(F36.5881569
F-75.4599516
tp402
sS'Oslo, Norway'
p403
(F59.9780349
F10.9476641
tp404
sS'Manor, TX'
p405
(F30.3776169
F-97.5038121
tp406
sS'Albany, NY'
p407
(F42.7223789
F-73.7247004
tp408
sS'New Canaan, CT'
p409
(F41.2116959
F-73.448965
tp410
sS'Bowling Green, OH'
p411
(F41.4145951
F-83.5999619
tp412
sS'The Woodlands, TX'
p413
(F30.231373
F-95.44672969999999
tp414
sS'LA'
p415
(F22.5028719
F107.6948299
tp416
sS'Kingston, Jamaica'
p417
(F18.0724069
F-76.72937399999999
tp418
sS'Los Angeles, CA, U.S.A.'
p419
(F34.3373061
F-118.1552891
tp420
sS'CT-OR-FL'
p421
(F42.050587
F-71.7872391
tp422
sS'MEMPHIS TN'
p423
(F35.264187
F-89.637081
tp424
sS'\xc3\x9cT: 37.185589,-121.992524'
p425
(F41.1398708
F-112.0285554
tp426
sS'nyc'
p427
(F40.9152555
F-73.70027209999999
tp428
sS'Oregon, USA'
p429
(F46.29201579999999
F-116.463262
tp430
sS'Oakland, CA'
p431
(F37.88472489999999
F-122.1149234
tp432
sS'Tacoma, Washington.'
p433
(F47.3190031
F-122.3482139
tp434
sS'Simpsonville, SC'
p435
(F34.7748891
F-82.21831209999999
tp436
sS'Los Angeles, CA'
p437
(F34.3373061
F-118.1552891
tp438
sS'Mendocino'
p439
(F39.323305
F-123.7706701
tp440
sS'Maple Grove Minnesota'
p441
(F45.1559309
F-93.40052790000001
tp442
sS'Columbia, MD'
p443
(F39.24003889999999
F-76.786965
tp444
sS'STL'
p445
(F38.77434909999999
F-90.166409
tp446
sS"O'Fallon, IL"
p447
(F38.64393
F-89.8581349
tp448
sS'Mid-South'
p449
(F35.5273415
F-90.30917649999999
tp450
sS'London, England'
p451
(F51.6723432
F0.1482711
tp452
sS'Greater Vancouver, BC, Canada'
p453
(F49.5745409
F-122.408262
tp454
sS'Seattle '
p455
(F47.7341451
F-122.2359033
tp456
sS'Colorado USA'
p457
(F41.00344399999999
F-102.040878
tp458
sS'tucson | az\xe2\x9c\x88'
p459
(F32.32016610000001
F-110.708204
tp460
sS'Austin, Texas'
p461
(F30.516863
F-97.5684199
tp462
sS'Vancouver, BC'
p463
(F49.3140764
F-123.0230679
tp464
sS'St. Louis'
p465
(F38.77434909999999
F-90.166409
tp466
sS'Montclair,nj'
p467
(F40.8618471
F-74.18268909999999
tp468
sS'Canton, Ohio, US'
p469
(F40.8658639
F-81.3009979
tp470
sS'naples, florida'
p471
(F26.211242
F-81.766661
tp472
sS'Mexico'
p473
(F32.7187629
F-86.7105711
tp474
sS'Statesboro, GA'
p475
(F32.4888503
F-81.73151709999999
tp476
sS'Abuja, Nigeria'
p477
(F9.1866247
F7.5555897
tp478
sS'Richmond B.C.'
p479
(F49.2574755
F-122.957113
tp480
sS'Albuquerque'
p481
(F35.218054
F-106.471163
tp482
sS'Purcellville, VA'
p483
(F39.16053910000001
F-77.6864591
tp484
sS'hampton, VA'
p485
(F37.1121091
F-76.2707076
tp486
sS'Viva Las Vegas NV.'
p487
(F36.2029892
F-115.2288263
tp488
sS'Jacksonville, FL'
p489
(F30.5862321
F-81.3914121
tp490
sS'Miami [Estados Unidos]'
p491
(F25.8556059
F-80.1424004
tp492
sS'Tennessee'
p493
(F36.678118
F-81.6469001
tp494
sS'Cleburne, Texas'
p495
(F32.43725
F-97.345794
tp496
sS'Marietta, OH'
p497
(F39.459228
F-81.4019331
tp498
sS'Murfreesboro, TN'
p499
(F35.96067499999999
F-86.337366
tp500
sS'LINY'
p501
(F36.2066485
F119.2032387
tp502
sS'Colton, CA'
p503
(F34.095611
F-117.269531
tp504
sS'Denver, Colo.'
p505
(F39.91424689999999
F-104.600296
tp506
sS'Tampa, FL'
p507
(F28.171478
F-82.2597409
tp508
sS'Baja Arizona'
p509
(F32.65372
F-114.169991
tp510
sS'Minnesota'
p511
(F49.3828205
F-89.49183339999999
tp512
sS'Appalachia'
p513
(F36.920944
F-82.7651681
tp514
sS'Illinois'
p515
(F42.50833799999999
F-87.4951991
tp516
sS'Sammamish'
p517
(F47.657408
F-121.970417
tp518
sS'london'
p519
(F51.6723432
F0.1482711
tp520
sS'Evanston, IL'
p521
(F42.0718019
F-87.66529709999999
tp522
sS'SW florida '
p523
(F31.000968
F-80.0311371
tp524
sS'Texas'
p525
(F36.5007041
F-93.5080389
tp526
sS'Wylie, TX'
p527
(F33.10033
F-96.423209
tp528
sS'Bath, UK'
p529
(F51.4117741
F-2.3149067
tp530
sS'newport news'
p531
(F37.220645
F-76.3875949
tp532
sS'West Central Florida'
p533
(F28.5421778
F-81.45946930000001
tp534
sS'\xc3\x9cT: 41.47186,-72.812671'
p535
(F38.4113389
F-111.640877
tp536
sS'Madrid, Spain'
p537
(F40.5638447
F-3.5249116
tp538
sS'Lake Elsinore, CA'
p539
(F33.7584911
F-117.219582
tp540
sS'Johnsburg Illinois'
p541
(F42.4160739
F-88.20574429999999
tp542
sS'bend volleyball'
p543
(F35.1623285
F-89.7998276
tp544
sS'Omaha, NE  USA'
p545
(F41.3931701
F-95.8711411
tp546
sS'Indiana, USA'
p547
(F41.7606971
F-84.784662
tp548
sS'Brooklyn, New York'
p549
(F40.739446
F-73.8333651
tp550
sS'pcb'
p551
(F33.6446035
F-117.8425839
tp552
sS'World'
p553
(F40.9152555
F-73.70027209999999
tp554
sS'Oklahoma'
p555
(F37.0023119
F-94.43066209999999
tp556
sS'texas'
p557
(F36.5007041
F-93.5080389
tp558
sS'Fayetteville, AR'
p559
(F36.148781
F-94.0266819
tp560
sS'Iowa, USA'
p561
(F43.5011961
F-90.140061
tp562
sS'Cambridge, UK'
p563
(F52.237855
F0.1919274
tp564
sS'Florence, KY'
p565
(F39.03091390000001
F-84.6110839
tp566
sS'Qu\xc3\xa9bec, Canada'
p567
(F62.600852
F-57.1054859
tp568
sS'Kansas City, MO'
p569
(F39.356662
F-94.38552209999999
tp570
sS'Mebane NC'
p571
(F36.1353231
F-79.22415
tp572
sS'dallas, tx'
p573
(F33.0237921
F-96.4637379
tp574
sS'PORT ORANGE, FL'
p575
(F29.1572311
F-80.9615335
tp576
sS'delaware county,pa'
p577
(F40.066197
F-75.215722
tp578
sS'Florida USA'
p579
(F31.000968
F-80.0311371
tp580
sS'Grants Pass , OR'
p581
(F42.47160299999999
F-123.287917
tp582
sS'Guelph, Ontario'
p583
(F43.595021
F-80.1533911
tp584
sS'Ciudad Aut\xc3\xb3noma de Buenos Aire'
p585
(F-34.5583087
F-58.49226230000001
tp586
sS'Fort Bend County, Texas'
p587
(F29.7883371
F-95.42411790000001
tp588
sS'Texas USA '
p589
(F36.5007041
F-93.5080389
tp590
sS'detroit'
p591
(F42.4502301
F-82.910451
tp592
sS'Contra Costa County, CA'
p593
(F38.099878
F-121.5342213
tp594
sS'Pennsylvania, USA'
p595
(F42.2693867
F-74.69009729999999
tp596
sS'South Pole'
p597
(F35.3387949
F-103.4347174
tp598
sS'Sidney, MT'
p599
(F47.7295171
F-104.1360509
tp600
sS'Main st'
p601
(F33.8707627
F-79.0408078
tp602
sS'Richmond VA'
p603
(F37.6027689
F-77.3855119
tp604
sS'Marlboro, NJ'
p605
(F40.39592409999999
F-74.19755599999999
tp606
sS'Global'
p607
(F31.95472809999999
F-102.1719073
tp608
sS'United States Of America '
p609
(F71.3867745
F-66.9502861
tp610
sS'Morgantown, WV'
p611
(F39.6750971
F-79.898771
tp612
sS'Chicago, Illinois'
p613
(F42.0231311
F-87.52404399999999
tp614
sS'Truckee, CA'
p615
(F39.387325
F-120.0772791
tp616
sS'to tokyo'
p617
(F35.8986469
F153.9875216
tp618
sS'Mongolia'
p619
(F52.1486964
F119.9319488
tp620
sS'Bakersfield, CA'
p621
(F35.4479751
F-118.772341
tp622
sS'Newark, NJ'
p623
(F40.788664
F-74.116993
tp624
sS'Calgary'
p625
(F51.18383009999999
F-113.876951
tp626
sS'alexandria,  Egypt'
p627
(F31.3309039
F30.0864016
tp628
sS'christmas island'
p629
(F-10.4123743
F105.7127383
tp630
sS'LANCASTER,NY'
p631
(F42.918101
F-78.6571381
tp632
sS'Fresno CA'
p633
(F36.908905
F-119.65464
tp634
sS'Huntington, WV'
p635
(F38.439347
F-82.3531929
tp636
sS'NL '
p637
(F53.5551998
F7.2275103
tp638
sS'U*S*A !'
p639
(F71.3867745
F-66.9502861
tp640
sS'Paris, France'
p641
(F48.9021449
F2.4699209
tp642
sS'canada'
p643
(F83.0956562
F-52.6206965
tp644
sS'Michigan'
p645
(F48.1986462
F-82.413474
tp646
sS'Death Valley'
p647
(F37.3812428
F-115.6483569
tp648
sS'Irvine, California'
p649
(F33.7744771
F-117.6784631
tp650
sS'Brasil '
p651
(F5.2717863
F-29.3449961
tp652
sS'Rutland, VT'
p653
(F43.6311212
F-72.945458
tp654
sS'Nyc'
p655
(F40.9152555
F-73.70027209999999
tp656
sS'mount clemens, MI'
p657
(F42.617894
F-82.856771
tp658
sS'S. California'
p659
(F42.0095169
F-114.1313927
tp660
sS'Texas, unoccupied US '
p661
(F36.5007041
F-93.5080389
tp662
sS'Ringgold, GA'
p663
(F34.934788
F-85.087791
tp664
sS'Mesquite, Texas'
p665
(F32.849232
F-96.47181309999999
tp666
sS'Toronto Canada'
p667
(F43.8554579
F-79.1168971
tp668
sS'Great state of Texas!'
p669
(F32.7395275
F-97.04061879999999
tp670
sS'Miami, FL'
p671
(F25.8556059
F-80.1424004
tp672
sS'Ukraine'
p673
(F52.37958099999999
F40.2285809
tp674
sS'World Peace'
p675
(F39.3881807
F-78.62673600000001
tp676
sS'arizona'
p677
(F37.0042599
F-109.0452231
tp678
sS'Arizona '
p679
(F37.0042599
F-109.0452231
tp680
sS'Portland, USA'
p681
(F45.65248
F-122.4718489
tp682
sS'Chatham Kent, Ontario'
p683
(F42.65148
F-81.6685559
tp684
sS'Nevada, USA'
p685
(F42.002207
F-114.039648
tp686
sS'La Quinta, CA'
p687
(F33.738004
F-116.2256391
tp688
sS'In ya area!'
p689
(F19.3050685
F73.0666741
tp690
sS'Dallas, Texas, USA'
p691
(F33.0237921
F-96.4637379
tp692
sS'United States'
p693
(F71.3867745
F-66.9502861
tp694
sS'Melbourne, Victoria'
p695
(F-37.79944589999999
F144.989097
tp696
sS'Earth '
p697
(F34.2476349
F-102.384555
tp698
sS'New Jersey, USA'
p699
(F41.3573676
F-73.9024391
tp700
sS'Robinson, TX'
p701
(F31.5069961
F-97.06602009999999
tp702
sS'Tokyo, Japan'
p703
(F35.8175167
F139.9198565
tp704
sS'harrison township, MI'
p705
(F42.4274
F-83.324129
tp706
sS'Earth.'
p707
(F34.2476349
F-102.384555
tp708
sS'Charlotte NC'
p709
(F35.39313300000001
F-80.670104
tp710
sS'Edmond, OK'
p711
(F35.7255509
F-97.264967
tp712
sS'Geelong VIC Australia'
p713
(F-38.1322689
F144.374881
tp714
sS'Cambridge'
p715
(F42.4043839
F-71.0654873
tp716
sS'Clemson, South Carolina'
p717
(F34.70986389999999
F-82.7791869
tp718
sS'Rancho Cucamonga, California'
p719
(F34.17138
F-117.478789
tp720
sS'Oklahoma ( SOONER )'
p721
(F36.566421
F-94.83893739999999
tp722
sS'Boston'
p723
(F42.3988669
F-70.9232011
tp724
sS'NYC '
p725
(F40.9152555
F-73.70027209999999
tp726
sS'San Diego, CA'
p727
(F33.114249
F-116.90816
tp728
sS'florida'
p729
(F31.000968
F-80.0311371
tp730
sS'Patterson, CA'
p731
(F37.5061002
F-121.0859871
tp732
sS'Washington State, USA'
p733
(F49.0024305
F-116.91558
tp734
sS'Massachusetts, USA'
p735
(F42.88679
F-69.9285512
tp736
sS'The South, USA'
p737
(F71.3867745
F-66.9502861
tp738
sS'Allentown, PA'
p739
(F40.635982
F-75.4196379
tp740
sS'Dana Point CA'
p741
(F33.498278
F-117.644974
tp742
sS'Providence, RI'
p743
(F41.861571
F-71.369694
tp744
sS'in your dreams .. in NY/NJ'
p745
(F41.3573676
F-73.9024391
tp746
sS'North East-South West'
p747
(F34.6923636
F36.4651241
tp748
sS'Mexico City'
p749
(F19.5927572
F-98.9604482
tp750
sS'Rocklin, CA'
p751
(F38.8526029
F-121.1887221
tp752
sS'Detroit, MI'
p753
(F42.4502301
F-82.910451
tp754
sS'DeWitt, MI'
p755
(F42.853033
F-84.5575729
tp756
sS'winter park florida '
p757
(F28.632476
F-81.3079899
tp758
sS'Holden,MA'
p759
(F42.431611
F-71.80161509999999
tp760
sS'Rochester/Upstate New York'
p761
(F43.2676137
F-77.5313737
tp762
sS'California '
p763
(F42.0095169
F-114.1313927
tp764
sS'Brasil'
p765
(F5.2717863
F-29.3448224
tp766
sS'Plano, TX'
p767
(F33.1252711
F-96.613022
tp768
sS'Michigan, USA'
p769
(F48.1986462
F-82.413474
tp770
sS'Vandalia, OH'
p771
(F39.9229799
F-84.157223
tp772
sS'Whittier, CA'
p773
(F34.03071600000001
F-117.965576
tp774
sS'Reynoldsburg, OH'
p775
(F39.987887
F-82.7408629
tp776
sS'Canarsie, Brooklyn, New York'
p777
(F40.656953
F-73.8770746
tp778
sS'LIGHTHOUSE POINT, FL'
p779
(F26.29805
F-80.0808548
tp780
sS'London UK'
p781
(F51.6723432
F0.1482711
tp782
sS'Minneapolis, MN, USA   '
p783
(F45.05125
F-93.193794
tp784
sS'New England'
p785
(F47.459686
F-66.8850751
tp786
sS'Dallas, TX'
p787
(F33.0237921
F-96.4637379
tp788
sS'shelter island ny'
p789
(F41.0844341
F-72.27014799999999
tp790
sS'Manhattan, NY'
p791
(F40.882214
F-73.907
tp792
sS'St Petersburg, FL'
p793
(F27.9133357
F-82.5876487
tp794
sS'Pittsburgh, PA'
p795
(F40.5013681
F-79.8657231
tp796
sS'new york'
p797
(F40.9152555
F-73.70027209999999
tp798
sS'Bridge Creek, OK'
p799
(F35.2382759
F-97.73265090000001
tp800
sS'Cheshire East'
p801
(F53.3874449
F-1.9747938
tp802
sS'Belgium'
p803
(F51.5051448
F6.408124099999999
tp804
sS'WORLD'
p805
(F40.9152555
F-73.70027209999999
tp806
sS'Hollywood, Los Angeles'
p807
(F34.111236
F-118.2840872
tp808
sS'Pacific NW'
p809
(F46.794303
F-123.35722
tp810
sS'Chappaqua, NY'
p811
(F41.193382
F-73.7291499
tp812
sS'Wichita, KS'
p813
(F37.8402
F-97.1530251
tp814
sS'Houston'
p815
(F30.1107319
F-95.014496
tp816
sS'\xe0\xa4\xa8\xe0\xa5\x87\xe0\xa4\xaa\xe0\xa4\xbe\xe0\xa4\xb2'
p817
(F30.4469452
F88.20152569999999
tp818
sS'Texas '
p819
(F36.5007041
F-93.5080389
tp820
sS'Milano'
p821
(F45.5356889
F9.2903463
tp822
sS'Whitesburg ky'
p823
(F37.13675509999999
F-82.789976
tp824
sS'Euston Road, London'
p825
(F51.530876
F-0.1223533
tp826
sS'iPhone: 40.899307,-77.769928'
p827
(F36.6821542
F116.9937323
tp828
sS'Annex, Toronto'
p829
(F43.6771849
F-79.3941293
tp830
sS'Port Angeles, WA'
p831
(F48.1420809
F-123.391874
tp832
sS'Ormond Beach, Fl'
p833
(F29.3598
F-81.0272925
tp834
sS'Mountain West'
p835
(F31.2550414
F-105.3749503
tp836
sS'Breaux Bridge, LA'
p837
(F30.3108959
F-91.8685869
tp838
sS'India '
p839
(F35.5087008
F97.395561
tp840
sS'Colorado, USA'
p841
(F41.00344399999999
F-102.040878
tp842
sS'Dirty South'
p843
(F40.6475359
F-79.41159360000002
tp844
sS'saint louis'
p845
(F38.77434909999999
F-90.166409
tp846
sS'Phoenix, AZ'
p847
(F33.9205701
F-111.9260461
tp848
sS'Colorado'
p849
(F41.00344399999999
F-102.040878
tp850
sS'Cooper City, FL'
p851
(F26.0647493
F-80.24894499999999
tp852
sS'in formation'
p853
(F10.6861119
F-12.2586635
tp854
sS'Chicago, IL'
p855
(F42.0231311
F-87.52404399999999
tp856
sS'sweden'
p857
(F69.0599709
F24.1773102
tp858
sS'New Orleans'
p859
(F30.1748626
F-89.6269312
tp860
sS'USA, East Side'
p861
(F40.8745634
F-122.6254764
tp862
sS'Kansas City'
p863
(F39.356662
F-94.38552209999999
tp864
sS'Arlington, TX'
p865
(F32.817121
F-97.0370081
tp866
sS'Bakersfield,CA 93312'
p867
(F35.432212
F-119.090819
tp868
sS'Jacksonville, FL.'
p869
(F30.5862321
F-81.3914121
tp870
sS'St. Croix, USVI'
p871
(F17.7901368
F-64.56519279999999
tp872
sS'Portland, Oregon, USA'
p873
(F45.65248
F-122.4718489
tp874
sS'Chicago'
p875
(F42.0231311
F-87.52404399999999
tp876
sS'Dallas, TX '
p877
(F33.0237921
F-96.4637379
tp878
sS'Larkspur ca'
p879
(F37.9586229
F-122.500785
tp880
sS'DC'
p881
(F38.995548
F-76.909393
tp882
sS'Philadelphia, Pennsylvania'
p883
(F40.13799179999999
F-74.95576299999999
tp884
sS'Colvos Passage, Vashon, Wa.'
p885
(F47.359362
F-122.5548482
tp886
sS'Andover, MA - USA'
p887
(F42.7002375
F-71.0759609
tp888
sS'Bayonne, NJ'
p889
(F40.6978753
F-74.06582929999999
tp890
sS'Hollywood,Chicago,Houston,N.Y.'
p891
(F40.9152555
F-73.70027209999999
tp892
sS'Titusville, FL'
p893
(F28.65177409999999
F-80.7792001
tp894
sS'Seattle,WA'
p895
(F47.7341451
F-122.2359033
tp896
sS'Idaho'
p897
(F49.0011461
F-111.043495
tp898
sS'Magic City'
p899
(F25.8556059
F-80.1424004
tp900
sS'\xd0\x92\xd0\xbe\xd0\xbb\xd0\xb3\xd0\xbe\xd0\xb3\xd1\x80\xd0\xb0\xd0\xb4'
p901
(F48.88889
F44.6809886
tp902
sS'Oklahoma City, Oklahoma'
p903
(F35.674752
F-97.12472
tp904
sS'Brooklyn '
p905
(F40.739446
F-73.8333651
tp906
sS'Alabama, USA'
p907
(F35.007889
F-84.88824609999999
tp908
sS'san diego'
p909
(F33.114249
F-116.90816
tp910
sS'Virginia'
p911
(F39.466012
F-75.2421573
tp912
sS'NW USA'
p913
(F71.3867745
F-66.9502861
tp914
sS'Berkeley, CA'
p915
(F37.9056682
F-122.234179
tp916
sS'Islamabad '
p917
(F33.7566789
F73.1771193
tp918
sS'Germany'
p919
(F55.0581235
F15.0418962
tp920
sS'Long Island, NY'
p921
(F41.1612401
F-71.85620109999999
tp922
sS'South Carolina'
p923
(F35.2155401
F-78.54082009999999
tp924
sS'Broadway '
p925
(F43.0393
F-73.78954639999999
tp926
sS'Subic Bay, Philippines'
p927
(F14.8781386
F120.2981616
tp928
sS'New Albany IN'
p929
(F38.371923
F-85.7829469
tp930
sS'Newton, MA'
p931
(F42.3679719
F-71.1569969
tp932
sS'The Outside'
p933
(F-34.0955449
F18.3720889
tp934
sS'Nashville, TN'
p935
(F36.405496
F-86.515588
tp936
sS'Plant City, FL'
p937
(F28.0911851
F-82.056287
tp938
sS'Los Angeles , New York,  Texas'
p939
(F27.4850493
F-99.46588299999999
tp940
sS'Los Angeles County'
p941
(F34.8231929
F-117.6456041
tp942
sS'Edmonton, Alberta'
p943
(F53.7161
F-113.2731591
tp944
sS'Washington DC '
p945
(F38.995548
F-76.909393
tp946
sS'Miami, Florida'
p947
(F25.8556059
F-80.1424004
tp948
sS'MichiganUSA'
p949
(F48.1986462
F-82.413474
tp950
sS'New Orleans, LA'
p951
(F30.1748626
F-89.6269312
tp952
sS'London, Ontario'
p953
(F43.0732451
F-81.106388
tp954
sS'Alabama'
p955
(F35.007889
F-84.88824609999999
tp956
sS'Los Angeles-Boston-Virginia'
p957
(F38.5511563
F-78.1254704
tp958
sS'Slidell, LA'
p959
(F30.358065
F-89.72323500000002
tp960
sS'Orlando, Fl'
p961
(F28.6143519
F-81.2297701
tp962
sS'Denver, CO'
p963
(F39.91424689999999
F-104.600296
tp964
sS'Republic of the Philippines ;)'
p965
(F19.5738013
F126.6043836
tp966
sS'The Empire State'
p967
(F45.0158651
F-71.8562294
tp968
sS'Colombia'
p969
(F13.3944833
F-66.851923
tp970
sS'Upper East Side, Manhattan'
p971
(F40.7879499
F-73.94221689999999
tp972
sS'Yonkers, NY'
p973
(F40.98828109999999
F-73.81071519999999
tp974
sS'Fort Worth/Dallas'
p975
(F33.049311
F-97.0337151
tp976
sS'Beautiful Northwest USA'
p977
(F41.9674923
F-92.5694755
tp978
sS'cleve,oh area'
p979
(F41.4149432
F-81.8671447
tp980
sS'Classified '
p981
(F34.9672611
F-80.90843
tp982
sS'Orlando, Florida, USA'
p983
(F28.6143519
F-81.2297701
tp984
sS'new york state of mind'
p985
(F40.40353349999999
F-74.0325041
tp986
sS'New Hampshire, USA'
p987
(F45.3054761
F-70.6026613
tp988
sS'Boynton Beach, Florida'
p989
(F26.5727851
F-80.0514889
tp990
sS'Earth'
p991
(F34.2476349
F-102.384555
tp992
sS'03743'
p993
(F43.438682
F-72.225087
tp994
sS'Orlando, FL'
p995
(F28.6143519
F-81.2297701
tp996
sS'Sydney, Australia'
p997
(F-33.5782356
F151.3430193
tp998
sS'Northern IL'
p999
(F38.126365
F-88.704606
tp1000
sS'Tampa, Florida'
p1001
(F28.171478
F-82.2597409
tp1002
sS'Laguna Beach, FL'
p1003
(F30.2758841
F-85.91213909999999
tp1004
sS'Arlington, VA, USA'
p1005
(F38.9343373
F-77.03214299999999
tp1006
sS'Stockton, NJ'
p1007
(F40.4136371
F-74.9649921
tp1008
sS'Paris'
p1009
(F48.9021449
F2.4699209
tp1010
sS'Lynn, MA'
p1011
(F42.5123831
F-70.92195749999999
tp1012
sS'FLORIDA'
p1013
(F31.000968
F-80.0311371
tp1014
sS'Waxhaw, NC'
p1015
(F34.961995
F-80.724707
tp1016
sS'WV'
p1017
(F40.638801
F-77.7189679
tp1018
sS'raleigh'
p1019
(F35.9717279
F-78.471063
tp1020
sS'Ponce, PR'
p1021
(F18.0589799
F-66.5096112
tp1022
sS'lakeland,fl.'
p1023
(F28.1722891
F-81.838785
tp1024
sS'Kansas, USA'
p1025
(F40.004542
F-94.58838709999999
tp1026
sS'Rosharon,Texas'
p1027
(F29.3674651
F-95.426816
tp1028
sS'Abuja'
p1029
(F9.1866247
F7.5555897
tp1030
sS'NW Georgia'
p1031
(F35.00065900000001
F-80.8407866
tp1032
sS'Madison/Milwaukee'
p1033
(F43.1023716
F-89.2541675
tp1034
sS'Idaho, USA'
p1035
(F49.0011461
F-111.043495
tp1036
sS'Columbus, OH'
p1037
(F40.157272
F-82.77137809999999
tp1038
sS'Maryland, USA'
p1039
(F39.7230371
F-75.0491813
tp1040
sS'Bronx, NY'
p1041
(F40.91525499999999
F-73.7652742
tp1042
sS'Washington, USA'
p1043
(F38.995548
F-76.909393
tp1044
sS'Putnam County'
p1045
(F41.527194
F-73.530067
tp1046
sS'Crystal River, FL'
p1047
(F28.9256961
F-82.568676
tp1048
sS'Bloomington, IN'
p1049
(F39.22107
F-86.4712941
tp1050
sS'Ann Arbor'
p1051
(F42.3239729
F-83.6758069
tp1052
sS'Washington, DC'
p1053
(F38.995548
F-76.909393
tp1054
sS'Westland, MI'
p1055
(F42.35518
F-83.30899900000001
tp1056
sS'perryopolis pa'
p1057
(F40.0990369
F-79.7339291
tp1058
sS'Tempe, AZ'
p1059
(F33.463984
F-111.8772261
tp1060
sS'Boulder, Colorado, USA'
p1061
(F40.094551
F-105.178197
tp1062
sS'Fairfield, CT'
p1063
(F41.231993
F-73.2178071
tp1064
sS'Morganville, NJ'
p1065
(F40.366807
F-74.26086
tp1066
sS'toronto'
p1067
(F43.8554579
F-79.1168971
tp1068
sS'Bozeman, MT'
p1069
(F45.7242241
F-110.983769
tp1070
sS'Hamilton, OH'
p1071
(F39.45711
F-84.4911439
tp1072
sS'Belo Horizonte - MG'
p1073
(F-19.7763149
F-43.8647871
tp1074
sS'michigan'
p1075
(F48.1986462
F-82.413474
tp1076
sS'Berdu, CA'
p1077
(F33.8363094
F-116.1187323
tp1078
sS'Madison, WI'
p1079
(F43.171916
F-89.24645199999999
tp1080
sS'coast'
p1081
(F41.88744519999999
F-87.6182832
tp1082
sS'Arkansas, USA'
p1083
(F36.4997491
F-89.64483790000001
tp1084
sS'SouthWestern Illinois USA'
p1085
(F39.3189104
F-89.5761979
tp1086
sS'Toronto, Ontario - CANADA'
p1087
(F43.8554579
F-79.1168971
tp1088
sS'SF Bay Area'
p1089
(F37.9297708
F-122.3279149
tp1090
sS' maharashtra, india'
p1091
(F22.027909
F80.890924
tp1092
sS'Guaraguao, Puerto Rico'
p1093
(F18.145782
F-66.65264309999999
tp1094
sS'Sacramento, Ca.'
p1095
(F38.685507
F-121.3257051
tp1096
sS'Woori Yallock'
p1097
(F-37.7354059
F145.5764049
tp1098
sS'Always near the water.'
p1099
(F13.7589564
F121.0755237
tp1100
sS'Texas Coahuila Zacatecas'
p1101
(F28.716912
F-100.4765247
tp1102
sS'University of Kentucky'
p1103
(F38.22657
F-85.750861
tp1104
sS'Florida / Indiana'
p1105
(F40.1630018
F-85.7073498
tp1106
sS'Dardanelle Arkansas'
p1107
(F35.2543531
F-93.14754909999999
tp1108
sS'New Jersey'
p1109
(F41.3573676
F-73.9024391
tp1110
sS'Missouri, USA'
p1111
(F40.61364
F-89.09949399999999
tp1112
sS'Washington'
p1113
(F38.995548
F-76.909393
tp1114
sS'Earth, North America, USA'
p1115
(F34.2476349
F-102.384555
tp1116
sS'Minneapolis'
p1117
(F45.05125
F-93.193794
tp1118
sS'Colorado '
p1119
(F41.00344399999999
F-102.040878
tp1120
sS'Florida, USA Florida Gator'
p1121
(F26.6968571
F-80.6274627
tp1122
sS'Moraga, CA'
p1123
(F37.876225
F-122.0881741
tp1124
sS'Texas, the Lone Star State'
p1125
(F36.5007041
F-93.5080389
tp1126
sS'ohio'
p1127
(F41.9773019
F-80.5182
tp1128
sS'Reno, NV'
p1129
(F39.723436
F-119.699345
tp1130
sS'Northeastern Ohio'
p1131
(F39.936507
F-83.6811231
tp1132
sS'Pataskala, OH'
p1133
(F40.0510279
F-82.6374271
tp1134
sS'POWER TO THE PEOPLE!'
p1135
(F39.864769
F116.3469047
tp1136
sS'Lehigh U., Bethlehem, PA'
p1137
(F40.6724789
F-75.3016758
tp1138
sS'Boston area'
p1139
(F33.4611827
F-94.32751619999999
tp1140
sS'AMAC'
p1141
(F47.7543577
F22.9303121
tp1142
sS'Knoxville'
p1143
(F36.067428
F-83.688543
tp1144
sS'Independence, OR'
p1145
(F44.872497
F-123.1764269
tp1146
sS'Grace '
p1147
(F35.7320679
F-91.2027238
tp1148
sS'Albany, NY / Boston, MA'
p1149
(F42.7223789
F-73.7247004
tp1150
sS'Various'
p1151
(F33.430431
F-112.292118
tp1152
sS'Naalehu, Hawaii (Big Island)'
p1153
(F19.0875741
F-155.558501
tp1154
sS'Cranston, RI'
p1155
(F41.80702000000001
F-71.3809654
tp1156
sS'Hearts & Minds'
p1157
(F35.2635027
F136.8592938
tp1158
sS'Twin Cities, Minnesota'
p1159
(F45.05125
F-93.00431979999999
tp1160
sS'Near epicenter of US'
p1161
(F42.9975088
F-89.5672792
tp1162
sS'\xc3\x9cT: 41.919172,-87.668115'
p1163
(F37.2108747
F-113.2701132
tp1164
sS'Willow Grove, PA'
p1165
(F40.1711549
F-75.091416
tp1166
sS'THE United States of America '
p1167
(F71.3867745
F-66.9502861
tp1168
sS'Exeter, England'
p1169
(F50.76146490000001
F-3.4563589
tp1170
sS'Iowa'
p1171
(F43.5011961
F-90.140061
tp1172
sS'Syracuse, NY'
p1173
(F43.0861019
F-76.0740841
tp1174
sS'New York City'
p1175
(F40.9152555
F-73.70027209999999
tp1176
sS'earth '
p1177
(F34.2476349
F-102.384555
tp1178
sS'Oregon'
p1179
(F46.29201579999999
F-116.463262
tp1180
sS'New York'
p1181
(F40.9152555
F-73.70027209999999
tp1182
sS'Warren, MI'
p1183
(F42.538429
F-82.967145
tp1184
sS'Los Angeles'
p1185
(F34.3373061
F-118.1552891
tp1186
sS'Springfield, IL, USA'
p1187
(F39.874049
F-89.5684859
tp1188
sS'Indy / Northern,Ky'
p1189
(F39.1474581
F-81.9649709
tp1190
sS'San Antonio'
p1191
(F29.73872
F-98.22295799999999
tp1192
sS'New Jersey coast'
p1193
(F40.0294646
F-74.1022859
tp1194
sS'Slidell La'
p1195
(F30.358065
F-89.72323500000002
tp1196
sS'Lakewood,Wa'
p1197
(F47.1982659
F-122.464516
tp1198
sS'Naperville, IL'
p1199
(F41.82197499999999
F-88.088488
tp1200
sS'U.S.'
p1201
(F71.3867745
F-66.9502861
tp1202
sS'quincy, ma'
p1203
(F42.3079899
F-70.945841
tp1204
sS'Florida'
p1205
(F31.000968
F-80.0311371
tp1206
sS'OREGON'
p1207
(F46.29201579999999
F-116.463262
tp1208
sS'New Orleans,LA'
p1209
(F30.1748626
F-89.6269312
tp1210
sS'Harlan, KY'
p1211
(F36.858986
F-83.307615
tp1212
sS'Carolina, USA'
p1213
(F38.1750891
F-86.7120443
tp1214
sS'Louisiana, USA'
p1215
(F33.019525
F-88.8162401
tp1216
sS'Northern Virginia'
p1217
(F37.3380991
F-81.279048
tp1218
sS'Eugene, OR'
p1219
(F44.13261989999999
F-123.036699
tp1220
sS'37.2748, -81.3037'
p1221
(F37.008577
F35.3811554
tp1222
sS'Cosmos'
p1223
(F44.942868
F-94.67600089999999
tp1224
sS'Cape Cod'
p1225
(F42.08231749999999
F-69.9285512
tp1226
sS'Brooklyn USA'
p1227
(F40.739446
F-73.8333651
tp1228
sS'Belton, TX'
p1229
(F31.1099441
F-97.426001
tp1230
sS'ottawa canada'
p1231
(F45.5375801
F-75.2465979
tp1232
sS'New York, NY '
p1233
(F40.9152555
F-73.70027209999999
tp1234
sS'Washington, D.C.'
p1235
(F38.995548
F-76.909393
tp1236
sS'Private'
p1237
(F39.5256474
F-104.9062034
tp1238
sS'Omaha, NE'
p1239
(F41.3931701
F-95.8711411
tp1240
sS'Savannah, GA'
p1241
(F32.189996
F-81.030361
tp1242
sS'flint, MI'
p1243
(F43.079336
F-83.6205449
tp1244
sS'Gettysburg, PA'
p1245
(F39.8437131
F-77.21763609999999
tp1246
sS'Arizona, USA'
p1247
(F37.0042599
F-109.0452231
tp1248
sS'new york, ny'
p1249
(F40.9152555
F-73.70027209999999
tp1250
sS'Destin, FL'
p1251
(F30.4177911
F-86.397207
tp1252
sS'Atlanta, Georgia '
p1253
(F33.8876179
F-84.289389
tp1254
sS'Guess'
p1255
(F20.0242079
F110.298724
tp1256
sS'Bodensee, Schweiz'
p1257
(F47.8174495
F9.753852499999999
tp1258
sS'NY b4 LA b4 Dallas'
p1259
(F41.6562815
F-73.889776
tp1260
sS'georgia USA'
p1261
(F35.00065900000001
F-80.8407866
tp1262
sS'Delaware'
p1263
(F39.839484
F-75.04869339999999
tp1264
sS'Cornwall N.Y.'
p1265
(F41.460062
F-74.01594399999999
tp1266
sS'Napa Valley, CA'
p1267
(F38.620105
F-122.2218768
tp1268
sS'Leeds, England'
p1269
(F53.88120199999999
F-1.3973731
tp1270
sS'NE OH'
p1271
(F41.9773019
F-80.5182
tp1272
sS'The City'
p1273
(F37.9297708
F-122.3279149
tp1274
sS'Midwest'
p1275
(F43.419657
F-106.268849
tp1276
sS'norman ok'
p1277
(F35.3483241
F-97.176918
tp1278
sS'Boston, USA'
p1279
(F42.3988669
F-70.9232011
tp1280
sS'Southern California USA'
p1281
(F35.8092361
F-114.131211
tp1282
sS'Lagos, Nigeria'
p1283
(F6.7027983
F3.6967277
tp1284
sS'Arkie'
p1285
(F36.4011931
F-94.05118879999999
tp1286
sS'FL - USA'
p1287
(F31.000968
F-80.0311371
tp1288
sS'USA'
p1289
(F71.3867745
F-66.9502861
tp1290
sS'Fabulous land'
p1291
(F42.7007543
F-84.56268159999999
tp1292
sS'iPhone: 39.813900,-85.072060'
p1293
(F36.3132898
F139.1754199
tp1294
sS'DALLAS, TEXAS 75232'
p1295
(F32.6913549
F-96.81455
tp1296
sS'Etats-Unis'
p1297
(F71.3867745
F-66.9502861
tp1298
sS'London & New York'
p1299
(F51.6723432
F0.1482711
tp1300
sS'Utah '
p1301
(F42.00161809999999
F-109.041058
tp1302
sS'Denver, Colorado'
p1303
(F39.91424689999999
F-104.600296
tp1304
sS'Brooklyn'
p1305
(F40.739446
F-73.8333651
tp1306
sS'pa'
p1307
(F42.2693867
F-74.69009729999999
tp1308
sS'California'
p1309
(F42.0095169
F-114.1313927
tp1310
sS'New Mexico '
p1311
(F37.0002931
F-103.0019641
tp1312
sS'laos'
p1313
(F22.5028719
F107.6948299
tp1314
sS'Iowa/USA'
p1315
(F43.5011961
F-90.140061
tp1316
sS'Las Vegas, Nevada'
p1317
(F36.3806231
F-115.0620721
tp1318
sS'Cleveland Hts., Ohio'
p1319
(F41.545292
F-81.52965490000001
tp1320
sS'Dubai, United Arab Emirates'
p1321
(F25.356582
F55.56503919999999
tp1322
sS'England, United Kingdom'
p1323
(F55.8111127
F1.762916
tp1324
sS'Newport Beach, CA'
p1325
(F33.6719199
F-117.78349
tp1326
sS'Toronto'
p1327
(F43.8554579
F-79.1168971
tp1328
sS'Georgia'
p1329
(F35.00065900000001
F-80.8407866
tp1330
sS'San Jose, CA'
p1331
(F37.4695381
F-121.589154
tp1332
sS'Pennsylvania'
p1333
(F42.2693867
F-74.69009729999999
tp1334
sS'CA'
p1335
(F42.0095169
F-114.1313927
tp1336
sS'Hidden Valley, IN'
p1337
(F39.1941739
F-84.8202769
tp1338
sS'Aotearoa'
p1339
(F28.4059855
F-81.5861498
tp1340
sS'Oklahoma City'
p1341
(F35.674752
F-97.12472
tp1342
sS'Miami Beach, FL'
p1343
(F25.872806
F-80.1185222
tp1344
sS'Sheboygan, WI'
p1345
(F43.797622
F-87.69553200000001
tp1346
sS'website: '
p1347
(F9.963518299999999
F76.294235
tp1348
sS'Southern USA'
p1349
(F33.396653
F-112.505359
tp1350
sS'NOLA '
p1351
(F30.1748626
F-89.6269312
tp1352
sS'CT'
p1353
(F42.050587
F-71.7872391
tp1354
sS'ARIZONA'
p1355
(F37.0042599
F-109.0452231
tp1356
sS'Rapid City SD'
p1357
(F44.136807
F-103.0393969
tp1358
sS'Quincy, MA'
p1359
(F42.3079899
F-70.945841
tp1360
sS'up front'
p1361
(F45.68963129999999
F-87.5260653
tp1362
sS'Saint albans , Wv'
p1363
(F38.39487099999999
F-81.787888
tp1364
sS'RI'
p1365
(F42.0188
F-71.1205471
tp1366
sS'Winnipeg'
p1367
(F49.9938741
F-96.9552281
tp1368
sS'Roseville, CA'
p1369
(F38.810356
F-121.184654
tp1370
sS'Connecticut, USA'
p1371
(F42.050587
F-71.7872391
tp1372
sS'south carolina'
p1373
(F35.2155401
F-78.54082009999999
tp1374
sS'Nashville, TN & Washington, DC'
p1375
(F36.405496
F-86.515588
tp1376
sS'Airdrie, Alberta'
p1377
(F51.3292709
F-113.9232445
tp1378
sS'District of Columbia, USA'
p1379
(F38.995548
F-76.909393
tp1380
sS'Charlotte, NC'
p1381
(F35.39313300000001
F-80.670104
tp1382
sS'Mafikeng, South Africa'
p1383
(F-25.7694069
F25.8060999
tp1384
sS'New Mexico, USA'
p1385
(F37.0002931
F-103.0019641
tp1386
sS'Gustine, California'
p1387
(F37.2671791
F-120.9607981
tp1388
sS'Tampa, Fl'
p1389
(F28.171478
F-82.2597409
tp1390
sS'Tijuana, Baja California'
p1391
(F32.5556323
F-116.7713996
tp1392
sS'St Louis, MO'
p1393
(F38.77434909999999
F-90.166409
tp1394
sS'trapped in America'
p1395
(F47.412183
F-94.3277569
tp1396
sS'N\xc3\xa1rnia '
p1397
(F37.4202729
F-122.1746473
tp1398
sS'North Carolina'
p1399
(F36.5881569
F-75.4599516
tp1400
sS'S\xc3\xa3o Paulo'
p1401
(F-23.3566039
F-46.36508449999999
tp1402
sS'Catland USA'
p1403
(F35.664207
F-92.3424229
tp1404
sS'Columbia/St Louis MO'
p1405
(F38.487531
F-90.167064
tp1406
sS'Carbondale, IL'
p1407
(F37.7620069
F-89.151448
tp1408
sS'Baltimore, MD'
p1409
(F39.3722059
F-76.5294529
tp1410
sS'\xeb\x8c\x80\xed\x95\x9c\xeb\xaf\xbc\xea\xb5\xad \xec\x84\x9c\xec\x9a\xb8'
p1411
(F37.7017495
F127.1835899
tp1412
sS'royal oak, MI'
p1413
(F42.54032
F-83.1107361
tp1414
sS'Springfield, Missouri'
p1415
(F37.2708071
F-93.1786431
tp1416
sS'Israel'
p1417
(F33.33280500000001
F35.8962439
tp1418
sS'BRASIL'
p1419
(F5.2717863
F-29.3449961
tp1420
sS'Newyork'
p1421
(F40.9152555
F-73.70027209999999
tp1422
sS'Bettendorf, IA'
p1423
(F41.6122551
F-90.424523
tp1424
sS'Ogden, Nevada '
p1425
(F38.63483129999999
F-99.9280277
tp1426
sS'Warwick, RI'
p1427
(F41.768333
F-71.35603549999999
tp1428
sS'U.S.A'
p1429
(F71.3867745
F-66.9502861
tp1430
sS'St Clair County, MI'
p1431
(F43.168946
F-82.413474
tp1432
sS'All over '
p1433
(F49.6805604
F-116.0372347
tp1434
sS'Corpus Christi '
p1435
(F27.916473
F-97.0097736
tp1436
sS'Carolina, Puerto Rico'
p1437
(F18.4578345
F-65.918779
tp1438
sS'Scottsdale, AZ'
p1439
(F33.900393
F-111.756092
tp1440
sS'Southwest, USA'
p1441
(F71.3867745
F-66.9502861
tp1442
sS'Colchester, UK'
p1443
(F51.9290019
F0.9626118999999999
tp1444
sS'Indianapolis Area'
p1445
(F41.7392135
F-86.8666602
tp1446
sS'Austin, TX'
p1447
(F30.516863
F-97.5684199
tp1448
sS'VA'
p1449
(F39.466012
F-75.2421573
tp1450
sS'Vermont'
p1451
(F45.0166591
F-71.4650389
tp1452
sS'Right Here,OHIO'
p1453
(F41.9773019
F-80.5182
tp1454
sS'Edina, MN'
p1455
(F44.930599
F-93.3187559
tp1456
sS'Pensacola Florida'
p1457
(F30.510595
F-87.1489184
tp1458
sS'Westlake, LA'
p1459
(F30.286245
F-93.2455899
tp1460
sS'San Francisco/L.A.'
p1461
(F37.9297708
F-122.3279149
tp1462
sS'Chicago, Las Vegas, Miami, KC'
p1463
(F42.0231311
F-87.52404399999999
tp1464
sS'Chicago/Florida'
p1465
(F-32.9283057
F-60.6830922
tp1466
sS'Whitsett, North Carolina'
p1467
(F36.100873
F-79.54968199999999
tp1468
sS'Burbank Washington'
p1469
(F46.2360379
F-118.9055919
tp1470
sS'BSD City & Semarang, Indonesia'
p1471
(F-6.2816179
F106.6189926
tp1472
sS'Gilbert, AZ'
p1473
(F33.3857919
F-111.6860711
tp1474
sS'Saint Paul, Minnesota'
p1475
(F44.9920161
F-93.0043199
tp1476
sS'America the Beautiful'
p1477
(F41.9674923
F-92.5694755
tp1478
sS'Morristown, NJ'
p1479
(F40.81836089999999
F-74.456181
tp1480
sS'SouthEastern USA'
p1481
(F33.96823
F-112.7275841
tp1482
sS'Terrace, BC CANADA'
p1483
(F54.543466
F-128.5131049
tp1484
sS'Albuquerque, NM'
p1485
(F35.218054
F-106.471163
tp1486
sS'Lockport NY '
p1487
(F43.1939561
F-78.6625531
tp1488
sS'Vermont, USA'
p1489
(F45.0166591
F-71.4650389
tp1490
sS'NW Indiana'
p1491
(F41.7606971
F-84.784662
tp1492
sS'United Kingdom'
p1493
(F60.8608663
F33.9165549
tp1494
sS'Salem, OR'
p1495
(F45.012341
F-122.9337039
tp1496
sS'Lagos'
p1497
(F6.7027983
F3.6967277
tp1498
sS'Greensboro, NC'
p1499
(F36.2153239
F-79.659866
tp1500
sS'Royal Oak, MI'
p1501
(F42.54032
F-83.1107361
tp1502
sS'Milwaukee '
p1503
(F43.1949671
F-87.8639841
tp1504
sS'South Florida, USA'
p1505
(F31.000968
F-80.0311371
tp1506
sS'Springfield, MO'
p1507
(F37.2708071
F-93.1786431
tp1508
sS'PA'
p1509
(F42.2693867
F-74.69009729999999
tp1510
sS'\xe3\x82\xab\xe3\x83\xaa\xe5\xb7\x9e\xe3\x81\xa9\xe7\x94\xb0\xe8\x88\x8e\xe7\xa7\x98\xe5\xaf\x86\xe5\x9f\xba\xe5\x9c\xb0'
p1511
(F3.505554
F-76.46082500000001
tp1512
sS'Milwaukee, WI'
p1513
(F43.1949671
F-87.8639841
tp1514
sS'not in vermont'
p1515
(F42.8628693
F-72.8140109
tp1516
sS'Queen Creek, AZ'
p1517
(F33.287647
F-111.572498
tp1518
sS'VIRGINIA'
p1519
(F39.466012
F-75.2421573
tp1520
sS'Del Valle Norte, Benito Ju\xc3\xa1rez'
p1521
(F19.4024055
F-99.16056429999999
tp1522
sS'USA/San Diego, CA'
p1523
(F33.114249
F-116.90816
tp1524
sS'EAST COAST-USA'
p1525
(F33.9648657
F-78.4151329
tp1526
sS'Salt Point, NY'
p1527
(F41.812177
F-73.7772229
tp1528
sS'Glen Rose, Tx'
p1529
(F32.2648918
F-97.72923399999999
tp1530
sS'Petal, MS'
p1531
(F31.3745959
F-89.174363
tp1532
sS'Ohio & Florida, USA'
p1533
(F41.9773019
F-80.5182
tp1534
sS'San Francisco'
p1535
(F37.9297708
F-122.3279149
tp1536
sS'92078'
p1537
(F33.157806
F-117.124528
tp1538
sS'Central Valley, CA.'
p1539
(F40.709755
F-122.3369849
tp1540
sS'TEXAS'
p1541
(F36.5007041
F-93.5080389
tp1542
sS'Petaling Jaya, Malaysia'
p1543
(F3.204971
F101.6637271
tp1544
sS'Charleston -- Charlotte'
p1545
(F35.1933186
F-80.764163
tp1546
sS'Birthplace of America'
p1547
(F40.13799179999999
F-74.95576299999999
tp1548
sS'Sweden, Europe.'
p1549
(F69.0599709
F24.1773102
tp1550
sS'Port charlotte '
p1551
(F27.0180221
F-82.057588
tp1552
sS'Knoxville, TN'
p1553
(F36.067428
F-83.688543
tp1554
sS' SOUTHBEACH #305 #MIAMI'
p1555
(F25.8002606
F-80.12480649999999
tp1556
sS'Tallahassee, FL'
p1557
(F30.5873371
F-84.129826
tp1558
sS'Katy, TX'
p1559
(F29.8313691
F-95.797328
tp1560
sS'Burbank'
p1561
(F34.221654
F-118.2801091
tp1562
sS'Connecticut'
p1563
(F42.050587
F-71.7872391
tp1564
sS'Orion, MI'
p1565
(F42.797945
F-83.2137801
tp1566
sS'Atlanta, GA'
p1567
(F33.8876179
F-84.289389
tp1568
sS'San Francisco, California'
p1569
(F37.9297708
F-122.3279149
tp1570
sS'World Wide '
p1571
(F22.2828053
F114.157939
tp1572
sS'NeoSAITAMA,JAPAN'
p1573
(F36.0330897
F139.5324362
tp1574
sS'Pahrump, NV'
p1575
(F36.409828
F-115.894433
tp1576
sS'Raleigh, NC '
p1577
(F35.9717279
F-78.471063
tp1578
sS'Draper Utah'
p1579
(F40.5443795
F-111.783164
tp1580
sS'Utica, Michigan'
p1581
(F42.637182
F-82.99297399999999
tp1582
sS'Rock Island, Illinois'
p1583
(F41.51533209999999
F-90.531534
tp1584
sS'Destin, FL & Jefferson, GA'
p1585
(F30.4177911
F-86.397207
tp1586
sS'utah'
p1587
(F42.00161809999999
F-109.041058
tp1588
sS'Newport News, Virginia, USA'
p1589
(F37.220645
F-76.3875949
tp1590
sS'North Platte '
p1591
(F41.1653759
F-100.704062
tp1592
sS'palmdale ca'
p1593
(F34.661043
F-117.915747
tp1594
sS'Silicon Valley'
p1595
(F37.5854665
F-121.7412328
tp1596
sS'Northern Hemisphere'
p1597
(F-31.6845611
F115.7817103
tp1598
sS'New Zealand'
p1599
(F-29.2313419
F-175.8315361
tp1600
sS'Clarksburg, WV'
p1601
(F39.336191
F-80.244948
tp1602
sS"Bessarabs'ka square Kyiv"
p1603
(F50.4435882
F30.5232478
tp1604
sS'Michigan USA'
p1605
(F48.1986462
F-82.413474
tp1606
sS' Brazil'
p1607
(F5.2717863
F-29.3449961
tp1608
sS'San Luis Obispo, CA'
p1609
(F35.3119901
F-120.6177951
tp1610
sS'Scarborough'
p1611
(F54.3048801
F-0.373251
tp1612
sS'Roanoke, VA'
p1613
(F37.3374169
F-79.8774871
tp1614
sS'Toronto '
p1615
(F43.8554579
F-79.1168971
tp1616
sS'Springfield, VA'
p1617
(F38.815393
F-77.13449109999999
tp1618
sS'Las Vegas, NA '
p1619
(F36.1748591
F-115.1722304
tp1620
sS'manchester, new hampshire, usa'
p1621
(F43.0514741
F-71.37540899999999
tp1622
sS'Hickory Hills, IL'
p1623
(F41.740132
F-87.8056019
tp1624
sS'London'
p1625
(F51.6723432
F0.1482711
tp1626
sS'Jacksonville, Florida'
p1627
(F30.5862321
F-81.3914121
tp1628
sS'New Braunfels, TX'
p1629
(F29.775557
F-98.0275449
tp1630
sS'Honeymoon Ave.'
p1631
(F28.7408238
F-81.86716899999999
tp1632
sS'Arkansas, USA '
p1633
(F36.4997491
F-89.64483790000001
tp1634
sS'NYC, PAR, DF, PaP, LDN, MIL'
p1635
(F40.9152555
F-73.70027209999999
tp1636
sS'NYC, Philadelphia'
p1637
(F40.072397
F-74.9456147
tp1638
sS'New Mexico'
p1639
(F37.0002931
F-103.0019641
tp1640
sS'Plut\xc3\xb3n.'
p1641
(F47.2172945
F26.0092735
tp1642
sS'Oceania'
p1643
(F20.6584862
F-124.5410156
tp1644
sS'Niagara Canada'
p1645
(F43.3729658
F-78.9059836
tp1646
sS'Central WI'
p1647
(F42.3383673
F-71.0911685
tp1648
sS'\xc3\x9cT: 41.979296,-87.907449'
p1649
(F37.2108747
F-113.2701132
tp1650
sS'India'
p1651
(F35.5087008
F97.395561
tp1652
sS'Portland, Oregon'
p1653
(F45.65248
F-122.4718489
tp1654
sS'COMPTON, CA'
p1655
(F33.923418
F-118.1799621
tp1656
sS'DETROIT'
p1657
(F42.4502301
F-82.910451
tp1658
sS'Hillsborough'
p1659
(F36.1222319
F-79.072644
tp1660
sS'Dallas, Texas'
p1661
(F33.0237921
F-96.4637379
tp1662
sS'Glasgow, Scotland'
p1663
(F55.9296412
F-4.0717167
tp1664
sS'Mars'
p1665
(F37.4228412
F-122.1684629
tp1666
sS'Underground'
p1667
(F19.1549895
F72.8571848
tp1668
sS'Hays County, TX'
p1669
(F30.3563121
F-97.70955
tp1670
sS'Grinnell, IA'
p1671
(F41.7628494
F-92.7017801
tp1672
sS'Nigeria'
p1673
(F13.8856449
F14.6779819
tp1674
sS'CANADA'
p1675
(F83.0956562
F-52.6206965
tp1676
sS'Kansas'
p1677
(F40.004542
F-94.58838709999999
tp1678
sS'Quebec'
p1679
(F62.600852
F-57.1054859
tp1680
sS'Utrecht, The Netherlands'
p1681
(F52.1422104
F5.1952073
tp1682
sS'Hillsboro, Oregon'
p1683
(F45.57587059999999
F-122.8589851
tp1684
sS'Long Beach'
p1685
(F33.8854591
F-118.063253
tp1686
sS'Palm Beach Gardens, FL'
p1687
(F26.8982521
F-80.05745499999999
tp1688
sS'belgium and ohio'
p1689
(F50.870914
F3.634823
tp1690
sS'Perth'
p1691
(F-31.6244855
F116.239023
tp1692
sS'Lakewood, OH'
p1693
(F41.4975428
F-81.76857199999999
tp1694
sS'Reality '
p1695
(F40.9721021
F-74.3719883
tp1696
sS"Providence & Martha's Vineyard"
p1697
(F41.861571
F-71.369694
tp1698
sS'Augusta, Ga'
p1699
(F33.5449331
F-81.828336
tp1700
sS'Northern Michigan, USA'
p1701
(F47.079126
F-96.25314
tp1702
sS'Barrington, RI'
p1703
(F41.7761129
F-71.2853267
tp1704
sS'Chula Vista, CA/Tijuana Mexico'
p1705
(F32.6856099
F-116.924797
tp1706
sS'The Big Apple'
p1707
(F40.9152555
F-73.70027209999999
tp1708
sS'East Tennessee'
p1709
(F36.678118
F-81.6469001
tp1710
sS'Ocoee, FL (Via USVI)'
p1711
(F28.621777
F-81.49615
tp1712
sS'Baton Rouge'
p1713
(F30.5592161
F-91.0010191
tp1714
sS'eating'
p1715
(F26.9739044
F-81.1212915
tp1716
sS'Boston, MA'
p1717
(F42.3988669
F-70.9232011
tp1718
sS'Pittsburgh PA'
p1719
(F40.5013681
F-79.8657231
tp1720
sS'Great state of Texas'
p1721
(F32.7395275
F-97.04061879999999
tp1722
sS'Ontario, CA'
p1723
(F34.0928101
F-117.524278
tp1724
sS'Toronto ON '
p1725
(F43.8554579
F-79.1168971
tp1726
sS'WA, THE GREAT NORTHWEST, USA'
p1727
(F34.5758866
F-80.9045312
tp1728
sS'Joliet, IL'
p1729
(F41.594691
F-87.990791
tp1730
sS'buffalo,ny'
p1731
(F42.966455
F-78.79515710000001
tp1732
sS'Paris, Tennessee'
p1733
(F36.3291321
F-88.2650759
tp1734
sS'Tucson, Arizona'
p1735
(F32.32016610000001
F-110.708204
tp1736
sS'Sacramento, CA'
p1737
(F38.685507
F-121.3257051
tp1738
sS'Brooklyn, NY'
p1739
(F40.739446
F-73.8333651
tp1740
sS'Pacific Northwest, USA'
p1741
(F46.794303
F-123.35722
tp1742
sS'San Antonio '
p1743
(F29.73872
F-98.22295799999999
tp1744
sS'England, Great Britain.'
p1745
(F55.8111127
F1.762916
tp1746
sS'Fort Worth, TX'
p1747
(F33.049311
F-97.0337151
tp1748
sS' Sturtevant, WI'
p1749
(F42.726521
F-87.8794581
tp1750
sS'US'
p1751
(F71.3867745
F-66.9502861
tp1752
sS'where the heart is '
p1753
(F40.4611528
F-79.88783819999999
tp1754
sS'louisiana '
p1755
(F33.019525
F-88.8162401
tp1756
sS'UK'
p1757
(F60.8608663
F33.9165549
tp1758
sS'Birmingham, AL'
p1759
(F33.6787149
F-86.5781499
tp1760
sS'Celina, TX '
p1761
(F33.403664
F-96.71364299999999
tp1762
sS'Cape Cod, Ma'
p1763
(F42.08231749999999
F-69.9285512
tp1764
sS'708 - 717 - 703'
p1765
(F39.8390347
F33.5087667
tp1766
sS"N 37\xc2\xb015' 0'' / W 121\xc2\xb048' 0''"
p1767
(F42.9790242
F-91.864376
tp1768
sS'Little Rock, AR'
p1769
(F34.821949
F-92.1549441
tp1770
sS'Amherst, MA'
p1771
(F42.433715
F-72.464186
tp1772
sS'Greater America'
p1773
(F29.81422599999999
F-95.36787
tp1774
sS'Muzambinho, Brasil'
p1775
(F-21.354052
F-46.5104813
tp1776
sS'Colorado Springs, CO'
p1777
(F39.035339
F-104.598897
tp1778
sS'Columbus, Ohio '
p1779
(F40.157272
F-82.77137809999999
tp1780
sS'Seattle, WA'
p1781
(F47.7341451
F-122.2359033
tp1782
sS'Danbury, CT or a Dunkin Donuts'
p1783
(F41.463891
F-73.4013641
tp1784
sS'Denver Colorado'
p1785
(F39.91424689999999
F-104.600296
tp1786
sS'Huntington WV'
p1787
(F38.439347
F-82.3531929
tp1788
sS'iowa'
p1789
(F43.5011961
F-90.140061
tp1790
sS'Springfield, OR'
p1791
(F44.095459
F-122.87973
tp1792
sS'Arkansas'
p1793
(F36.4997491
F-89.64483790000001
tp1794
sS'Orange County CA USA'
p1795
(F33.94751189999999
F-117.4129869
tp1796
sS'Seaside Park, NJ & NYC '
p1797
(F39.9375379
F-74.0708911
tp1798
sS'laval'
p1799
(F45.701127
F-73.5230009
tp1800
sS'Carmel, California'
p1801
(F36.56432
F-121.912781
tp1802
sS'New York, New York'
p1803
(F40.9152555
F-73.70027209999999
tp1804
sS'Vero Beach, FL'
p1805
(F27.6749051
F-80.347229
tp1806
sS'PHILLY'
p1807
(F40.13799179999999
F-74.95576299999999
tp1808
sS'N.J'
p1809
(F50.0831129
F14.4219174
tp1810
sS'NJ'
p1811
(F41.3573676
F-73.9024391
tp1812
sS'DETROIT | CHICAGO'
p1813
(F42.3692841
F-83.130921
tp1814
sS'Durham, NC'
p1815
(F36.13692899999999
F-78.762172
tp1816
sS'Dayton'
p1817
(F39.920823
F-84.0929379
tp1818
sS'new jersey'
p1819
(F41.3573676
F-73.9024391
tp1820
sS'Washington, DC and London'
p1821
(F39.092796
F-77.079101
tp1822
sS'Maine, USA'
p1823
(F47.4596735
F-66.9453971
tp1824
sS'Yobe | Egypt'
p1825
(F26.7283835
F33.9382126
tp1826
sS'NY'
p1827
(F40.9152555
F-73.70027209999999
tp1828
sS'international '
p1829
(F39.2980105
F-94.71446859999999
tp1830
sS'Manhatten, NYC'
p1831
(F40.882214
F-73.907
tp1832
sS'Indiana'
p1833
(F41.7606971
F-84.784662
tp1834
sS'Sarasota, FL'
p1835
(F27.389122
F-82.47864109999999
tp1836
sS'\xc3\x9cT: 33.774353,-118.067518'
p1837
(F38.6242484
F-112.2176782
tp1838
sS'Aotearoa New Zealand'
p1839
(F-38.139677
F175.610183
tp1840
sS'Bishkek'
p1841
(F42.9506031
F74.7188189
tp1842
sS'Nakhorn Pathom, Thailand'
p1843
(F14.1788198
F100.3375194
tp1844
sS'Long Beach, CA'
p1845
(F33.8854591
F-118.063253
tp1846
sS' Queens NY'
p1847
(F40.80076
F-73.70027209999999
tp1848
sS'West Virginia'
p1849
(F40.638801
F-77.7189679
tp1850
sS'Mount Juliet, TN'
p1851
(F36.277675
F-86.433993
tp1852
sS'netherland'
p1853
(F38.1006338
F-98.39881249999999
tp1854
sS'Austin, Texas  78744'
p1855
(F30.2223891
F-97.67970009999999
tp1856
sS'Summerville, SC'
p1857
(F33.0547861
F-80.124797
tp1858
sS'Hamilton, Ontario'
p1859
(F43.47105699999999
F-79.6221594
tp1860
sS'Detroit'
p1861
(F42.4502301
F-82.910451
tp1862
sS'Toronto, Canada'
p1863
(F43.8554579
F-79.1168971
tp1864
sS'Lexington, Ky'
p1865
(F38.211404
F-84.282715
tp1866
sS'Bangladesh'
p1867
(F26.6342433
F92.6801153
tp1868
sS'Rocky Mountain Empire.'
p1869
(F33.5674909
F-117.5947172
tp1870
sS'Austin'
p1871
(F30.516863
F-97.5684199
tp1872
sS'New York City Area'
p1873
(F40.88511159999999
F-72.3931941
tp1874
sS'West Hills'
p1875
(F13.0283814
F80.2249198
tp1876
sS'Hamilton, NJ'
p1877
(F40.270903
F-74.58784709999999
tp1878
sS'Los Angeles // DC'
p1879
(F4.703528299999999
F-74.1181505
tp1880
sS'Utica, NY'
p1881
(F43.132269
F-75.160906
tp1882
sS'mid west'
p1883
(F43.419657
F-106.268849
tp1884
sS'Republic of the Philippines'
p1885
(F19.5738013
F126.6043836
tp1886
sS'Suwanee, GA'
p1887
(F34.084337
F-84.02277000000001
tp1888
sS'White Cloud, MI'
p1889
(F43.5613921
F-85.75174009999999
tp1890
sS'Los Angeles, Los Angeles'
p1891
(F34.3373061
F-118.1552891
tp1892
sS'45\xc2\xb0 North'
p1893
(F42.715295
F-73.2089488
tp1894
sS'View Park-Windsor Hills, CA'
p1895
(F34.008258
F-118.3314851
tp1896
sS'Mumbai'
p1897
(F19.2716338
F72.9864994
tp1898
sS'Fridley, Minnesota'
p1899
(F45.1246041
F-93.227206
tp1900
sS'South Florida'
p1901
(F31.000968
F-80.0311371
tp1902
sS'ua'
p1903
(F52.37958099999999
F40.2285809
tp1904
sS'Buford, GA'
p1905
(F34.168506
F-83.939544
tp1906
sS'Cleveland, OH'
p1907
(F41.5992572
F-81.532744
tp1908
sS'Exeter, UK'
p1909
(F50.76146490000001
F-3.4563589
tp1910
sS'AMERICA!'
p1911
(F71.3867745
F-66.9502861
tp1912
sS'US of A'
p1913
(F71.3867745
F-66.9502861
tp1914
sS'South Carolina, USA'
p1915
(F35.2155401
F-78.54082009999999
tp1916
sS'Las Vegas, NV'
p1917
(F36.3806231
F-115.0620721
tp1918
sS'SE Meeechigan / NW Ohio'
p1919
(F46.5429285
F-88.1567717
tp1920
sS'NW Arkansas'
p1921
(F36.4997491
F-89.64483790000001
tp1922
sS'NC'
p1923
(F36.5881569
F-75.4599516
tp1924
sS'Greensboro, North Carolina'
p1925
(F36.2153239
F-79.659866
tp1926
sS'Kingdom of Saudi Arabia'
p1927
(F32.1542839
F55.6666999
tp1928
sS'The Symposium'
p1929
(F38.7481409
F-76.89366
tp1930
sS'The United States of America'
p1931
(F71.3867745
F-66.9502861
tp1932
sS'Warner Robins, Ga.'
p1933
(F32.6642171
F-83.57618099999999
tp1934
sS'Orlando Florida'
p1935
(F28.6143519
F-81.2297701
tp1936
sS'New York, NY'
p1937
(F40.9152555
F-73.70027209999999
tp1938
sS'Pacific Northwest '
p1939
(F46.794303
F-123.35722
tp1940
sS'Dallastown, PA'
p1941
(F39.906699
F-76.6276889
tp1942
sS'Moscow, Russia'
p1943
(F56.0096569
F37.9456611
tp1944
sS'Solon, OH'
p1945
(F41.4247529
F-81.391393
tp1946
sS'Richmond, VA'
p1947
(F37.6027689
F-77.3855119
tp1948
sS'Edmonton, Alberta Canada'
p1949
(F53.7161
F-113.2731591
tp1950
sS'Joplin, MO'
p1951
(F37.1736531
F-94.440355
tp1952
sS'Cambridge, MA'
p1953
(F42.4043839
F-71.0654873
tp1954
sS'Texas, USA'
p1955
(F36.5007041
F-93.5080389
tp1956
sS'Culver City'
p1957
(F34.03508
F-118.369577
tp1958
sS'TX'
p1959
(F36.5007041
F-93.5080389
tp1960
sS'Bruxelles'
p1961
(F50.91370999999999
F4.43698
tp1962
sS'Utah'
p1963
(F42.00161809999999
F-109.041058
tp1964
sS'London '
p1965
(F51.6723432
F0.1482711
tp1966
sS'Smokey Mountains, Tennessee '
p1967
(F36.335678
F-86.467488
tp1968
sS'Fort Worth Texas '
p1969
(F33.049311
F-97.0337151
tp1970
sS'Brooklyn, NY USA'
p1971
(F40.739446
F-73.8333651
tp1972
sS'On top of the world'
p1973
(F28.0083309
F-82.7337
tp1974
sS'Baghdad, Colombia, Florida'
p1975
(F33.4350585
F44.5558261
tp1976
sS'Vancouver BC'
p1977
(F49.3140764
F-123.0230679
tp1978
sS'South Jersy,USA'
p1979
(F39.262124
F-90.145842
tp1980
sS'Caracas, Venezuela'
p1981
(F10.5401335
F-66.71795329999999
tp1982
sS'Ontario, Canada'
p1983
(F56.8565279
F-74.34388229999999
tp1984
sS'New Delhi, India'
p1985
(F28.6504799
F77.34496
tp1986
sS'Houston, TX'
p1987
(F30.1107319
F-95.014496
tp1988
sS'Valdosta, Georgia 31605'
p1989
(F30.928853
F-83.22193109999999
tp1990
sS'Schertz, TX'
p1991
(F29.650532
F-98.19677399999999
tp1992
sS'The South'
p1993
(F33.5978088
F35.6373062
tp1994
sS'USA #Trump2016 #ImWithYou '
p1995
(F71.3867745
F-66.9502861
tp1996
sS'phoenix'
p1997
(F33.9205701
F-111.9260461
tp1998
sS'Madison '
p1999
(F43.171916
F-89.24645199999999
tp2000
sS'I.D.O.C.R.A.C.Y U.S.A'
p2001
(F71.3867745
F-66.9502861
tp2002
sS'British Columbia, Canada'
p2003
(F60.000149
F-114.054221
tp2004
sS'Palm Desert, CA'
p2005
(F33.810363
F-116.302079
tp2006
sS'Tampa,Florida '
p2007
(F28.171478
F-82.2597409
tp2008
sS'New Orleans, La '
p2009
(F30.1748626
F-89.6269312
tp2010
sS'Lenexa, KS'
p2011
(F38.9929921
F-94.705003
tp2012
sS'Zimbabwe'
p2013
(F-15.609319
F33.068236
tp2014
sS'Charleston, SC '
p2015
(F32.9735861
F-79.79716599999999
tp2016
sS'Oregon city . Oregon .'
p2017
(F45.3807111
F-122.551971
tp2018
sS'Fruit Hill, Kentucky'
p2019
(F37.2883262
F-87.11927700000001
tp2020
sS'Topeka, KS'
p2021
(F39.1092651
F-95.603799
tp2022
sS'valby'
p2023
(F55.6786329
F12.5373005
tp2024
sS'Baltimore'
p2025
(F39.3722059
F-76.5294529
tp2026
sS'Westfield Massachusetts '
p2027
(F42.2001858
F-72.6848359
tp2028
sS'Arlington, VA'
p2029
(F38.9343373
F-77.03214299999999
tp2030
sS'World Wide'
p2031
(F22.2828053
F114.157939
tp2032
sS'Confidential'
p2033
(F31.2092723
F121.4455779
tp2034
sS'Midwest USA'
p2035
(F43.419657
F-106.268849
tp2036
sS'\xc3\x9cT: 38.735951,-77.08922'
p2037
(F41.67218949999999
F-112.089759
tp2038
sS'Delray Beach,FL,USA\xe2\x98\x80\xef\xb8\x8f'
p2039
(F26.4914608
F-80.0557784
tp2040
sS'Burbank CA'
p2041
(F34.221654
F-118.2801091
tp2042
sS'Bay Area'
p2043
(F38.8642448
F-121.208178
tp2044
sS'Santa Monica, CA'
p2045
(F34.05056
F-118.443426
tp2046
sS'Shirleysburg, Pa. USA'
p2047
(F40.301683
F-77.873263
tp2048
sS'Fairfield, CA'
p2049
(F38.3088917
F-121.8921849
tp2050
sS'Fairfax, VA'
p2051
(F38.87169189999999
F-77.268624
tp2052
sS'reno, nevada'
p2053
(F39.723436
F-119.699345
tp2054
sS'Landis NC'
p2055
(F35.5878216
F-80.589455
tp2056
sS'Gulf Coast USA'
p2057
(F29.60749
F-95.52407799999999
tp2058
sS'Philly'
p2059
(F40.13799179999999
F-74.95576299999999
tp2060
sS'Bentonville, AR'
p2061
(F36.4376958
F-94.1515331
tp2062
s.