(dp0
Vsearch_metadata
p1
(dp2
Vcount
p3
I3
sVcompleted_in
p4
F0.025
sVmax_id_str
p5
V772667198913540096
p6
sVsince_id_str
p7
V0
p8
sVrefresh_url
p9
V?since_id=772667198913540096&q=%22The%20Real%20Donald%20Trump%22&lang=en&include_entities=1
p10
sVsince_id
p11
I0
sVquery
p12
V%22The+Real+Donald+Trump%22
p13
sVmax_id
p14
L772667198913540096L
ssVstatuses
p15
(lp16
(dp17
Vcontributors
p18
NsVtruncated
p19
I00
sVtext
p20
V@MagicRoyalty he is the real donald trump after all and you r i do believe his biggest fan or stalker lol!
p21
sVis_quote_status
p22
I00
sVin_reply_to_status_id
p23
L772666647719055360L
sVid
p24
L772667198913540096L
sVfavorite_count
p25
I0
sVentities
p26
(dp27
Vsymbols
p28
(lp29
sVuser_mentions
p30
(lp31
(dp32
g24
L3197771592L
sVindices
p33
(lp34
I0
aI13
asVid_str
p35
V3197771592
p36
sVscreen_name
p37
VMagicRoyalty
p38
sVname
p39
VMADAME
p40
sasVhashtags
p41
(lp42
sVurls
p43
(lp44
ssVretweeted
p45
I00
sVcoordinates
p46
NsVsource
p47
V<a href="http://twitter.com/download/iphone" rel="nofollow">Twitter for iPhone</a>
p48
sVin_reply_to_screen_name
p49
Vtimlooney68
p50
sVin_reply_to_user_id
p51
L2659800486L
sVretweet_count
p52
I0
sg35
V772667198913540096
p53
sVfavorited
p54
I00
sVuser
p55
(dp56
Vfollow_request_sent
p57
I00
sVhas_extended_profile
p58
I00
sVprofile_use_background_image
p59
I01
sVdefault_profile_image
p60
I00
sg24
L2659800486L
sVprofile_background_image_url_https
p61
Vhttps://abs.twimg.com/images/themes/theme1/bg.png
p62
sVverified
p63
I00
sVprofile_text_color
p64
V333333
p65
sVprofile_image_url_https
p66
Vhttps://pbs.twimg.com/profile_images/490535422557032450/CDRvD_62_normal.jpeg
p67
sVprofile_sidebar_fill_color
p68
VDDEEF6
p69
sg26
(dp70
Vdescription
p71
(dp72
g43
(lp73
sssVfollowers_count
p74
I42
sVprofile_sidebar_border_color
p75
VC0DEED
p76
sg35
V2659800486
p77
sVprofile_background_color
p78
VC0DEED
p79
sVlisted_count
p80
I4
sVis_translation_enabled
p81
I00
sVutc_offset
p82
NsVstatuses_count
p83
I908
sg71
V
p84
sVfriends_count
p85
I108
sVlocation
p86
g84
sVprofile_link_color
p87
V0084B4
p88
sVprofile_image_url
p89
Vhttp://pbs.twimg.com/profile_images/490535422557032450/CDRvD_62_normal.jpeg
p90
sVfollowing
p91
I00
sVgeo_enabled
p92
I00
sVprofile_background_image_url
p93
Vhttp://abs.twimg.com/images/themes/theme1/bg.png
p94
sg37
Vtimlooney68
p95
sVlang
p96
Ven
p97
sVprofile_background_tile
p98
I00
sVfavourites_count
p99
I675
sg39
VTim Looney
p100
sVnotifications
p101
I00
sVurl
p102
NsVcreated_at
p103
VSat Jul 19 16:03:49 +0000 2014
p104
sVcontributors_enabled
p105
I00
sVtime_zone
p106
NsVprotected
p107
I00
sVdefault_profile
p108
I01
sVis_translator
p109
I00
ssVgeo
p110
NsVin_reply_to_user_id_str
p111
V2659800486
p112
sg96
Ven
p113
sg103
VMon Sep 05 05:26:30 +0000 2016
p114
sVin_reply_to_status_id_str
p115
V772666647719055360
p116
sVplace
p117
NsVmetadata
p118
(dp119
Viso_language_code
p120
Ven
p121
sVresult_type
p122
Vrecent
p123
ssa(dp124
g18
Nsg19
I00
sg20
VRT @USAforTrump2016: The REAL Donald Trump! Can't share this enough! https://t.co/m7U4ysDOwC
p125
sg22
I00
sg23
Nsg24
L772663381673127937L
sg25
I0
sg26
(dp126
g28
(lp127
sg30
(lp128
(dp129
g24
L705902960967094272L
sg33
(lp130
I3
aI19
asg35
V705902960967094272
p131
sg37
VUSAforTrump2016
p132
sg39
VVOTE TRUMP 2016
p133
sasg41
(lp134
sg43
(lp135
sVmedia
p136
(lp137
(dp138
Vsource_user_id
p139
L705902960967094272L
sVsource_status_id_str
p140
V772504908629155840
p141
sVexpanded_url
p142
Vhttps://twitter.com/USAforTrump2016/status/772504908629155840/video/1
p143
sVdisplay_url
p144
Vpic.twitter.com/m7U4ysDOwC
p145
sg102
Vhttps://t.co/m7U4ysDOwC
p146
sVmedia_url_https
p147
Vhttps://pbs.twimg.com/media/CqEeSXwXYAActlt.jpg
p148
sVsource_user_id_str
p149
V705902960967094272
p150
sVsource_status_id
p151
L772504908629155840L
sg35
V748606984358879232
p152
sVsizes
p153
(dp154
Vsmall
p155
(dp156
Vh
p157
I360
sVresize
p158
Vfit
p159
sVw
p160
I640
ssVlarge
p161
(dp162
g157
I360
sg158
Vfit
p163
sg160
I640
ssVmedium
p164
(dp165
g157
I360
sg158
Vfit
p166
sg160
I640
ssVthumb
p167
(dp168
g157
I150
sg158
Vcrop
p169
sg160
I150
sssg33
(lp170
I69
aI92
asVtype
p171
Vphoto
p172
sg24
L748606984358879232L
sVmedia_url
p173
Vhttp://pbs.twimg.com/media/CqEeSXwXYAActlt.jpg
p174
sassg45
I00
sg46
Nsg47
V<a href="http://twitter.com/download/iphone" rel="nofollow">Twitter for iPhone</a>
p175
sg49
Nsg51
Nsg52
I339
sg35
V772663381673127937
p176
sg54
I00
sVretweeted_status
p177
(dp178
g18
Nsg19
I00
sg20
VThe REAL Donald Trump! Can't share this enough! https://t.co/m7U4ysDOwC
p179
sg22
I00
sg23
Nsg24
L772504908629155840L
sg25
I410
sg26
(dp180
g28
(lp181
sg30
(lp182
sg41
(lp183
sg43
(lp184
sg136
(lp185
(dp186
g142
Vhttps://twitter.com/USAforTrump2016/status/772504908629155840/video/1
p187
sg144
Vpic.twitter.com/m7U4ysDOwC
p188
sg102
Vhttps://t.co/m7U4ysDOwC
p189
sg147
Vhttps://pbs.twimg.com/media/CqEeSXwXYAActlt.jpg
p190
sg35
V748606984358879232
p191
sg153
(dp192
g155
(dp193
g157
I360
sg158
Vfit
p194
sg160
I640
ssg161
(dp195
g157
I360
sg158
Vfit
p196
sg160
I640
ssg164
(dp197
g157
I360
sg158
Vfit
p198
sg160
I640
ssg167
(dp199
g157
I150
sg158
Vcrop
p200
sg160
I150
sssg33
(lp201
I48
aI71
asg171
Vphoto
p202
sg24
L748606984358879232L
sg173
Vhttp://pbs.twimg.com/media/CqEeSXwXYAActlt.jpg
p203
sassg45
I00
sg46
Nsg47
V<a href="http://twitter.com" rel="nofollow">Twitter Web Client</a>
p204
sg49
Nsg51
Nsg52
I339
sg35
V772504908629155840
p205
sg54
I00
sg55
(dp206
g57
I00
sg58
I00
sg59
I01
sg60
I00
sg24
L705902960967094272L
sg61
Nsg63
I00
sg64
V333333
p207
sg66
Vhttps://pbs.twimg.com/profile_images/760219109380526080/6rLqlLh1_normal.jpg
p208
sg68
VDDEEF6
p209
sg26
(dp210
g102
(dp211
g43
(lp212
(dp213
g102
Vhttps://t.co/Dhe1uAAgzt
p214
sg33
(lp215
I0
aI23
asg142
Vhttp://usafortrump2016.com
p216
sg144
Vusafortrump2016.com
p217
sassg71
(dp218
g43
(lp219
(dp220
g102
Vhttps://t.co/1w5vkX9BPV
p221
sg33
(lp222
I32
aI55
asg142
Vhttp://bit.ly/GooglePlayAmericaFirst
p223
sg144
Vbit.ly/GooglePlayAmer\u2026
p224
sa(dp225
g102
Vhttps://t.co/eh7YMNRXis
p226
sg33
(lp227
I63
aI86
asg142
Vhttps://appsto.re/us/ae7Qdb.i
p228
sg144
Vappsto.re/us/ae7Qdb.i
p229
sasssg74
I42375
sg75
VC0DEED
p230
sg35
V705902960967094272
p231
sg78
VF5F8FA
p232
sg80
I185
sg81
I00
sg82
I-14400
sg83
I8698
sg71
VOfficial campaign app! Android: https://t.co/1w5vkX9BPV Apple: https://t.co/eh7YMNRXis                            INVITATION CODE: YD42D
p233
sg85
I274
sg86
VTRUMP HQ
p234
sg87
V2B7BB9
p235
sg89
Vhttp://pbs.twimg.com/profile_images/760219109380526080/6rLqlLh1_normal.jpg
p236
sg91
I00
sg92
I00
sVprofile_banner_url
p237
Vhttps://pbs.twimg.com/profile_banners/705902960967094272/1470454001
p238
sg93
Nsg37
VUSAforTrump2016
p239
sg96
Ven
p240
sg98
I00
sg99
I8563
sg39
VVOTE TRUMP 2016
p241
sg101
I00
sg102
Vhttps://t.co/Dhe1uAAgzt
p242
sg103
VFri Mar 04 23:49:15 +0000 2016
p243
sg105
I00
sg106
VEastern Time (US & Canada)
p244
sg107
I00
sg108
I01
sg109
I00
ssg110
Nsg111
NsVpossibly_sensitive
p245
I00
sg96
Ven
p246
sg103
VSun Sep 04 18:41:37 +0000 2016
p247
sg115
Nsg117
NsVextended_entities
p248
(dp249
g136
(lp250
(dp251
Vadditional_media_info
p252
(dp253
Vmonetizable
p254
I00
sVembeddable
p255
I01
sg71
g84
sVtitle
p256
VThe Real Donald Trump.
p257
ssg142
Vhttps://twitter.com/USAforTrump2016/status/772504908629155840/video/1
p258
sg144
Vpic.twitter.com/m7U4ysDOwC
p259
sg102
Vhttps://t.co/m7U4ysDOwC
p260
sg147
Vhttps://pbs.twimg.com/media/CqEeSXwXYAActlt.jpg
p261
sVvideo_info
p262
(dp263
Vaspect_ratio
p264
(lp265
I16
aI9
asVduration_millis
p266
I507273
sVvariants
p267
(lp268
(dp269
g102
Vhttps://video.twimg.com/amplify_video/748606984358879232/pl/5th3qcl8n7gPVppH.m3u8
p270
sVcontent_type
p271
Vapplication/x-mpegURL
p272
sa(dp273
g102
Vhttps://video.twimg.com/amplify_video/748606984358879232/vid/640x360/1WMBAIA6Q5wp6zag.mp4
p274
sVbitrate
p275
I832000
sg271
Vvideo/mp4
p276
sa(dp277
g102
Vhttps://video.twimg.com/amplify_video/748606984358879232/vid/1280x720/Ft7WOuY91BSdUUUC.mp4
p278
sg275
I2176000
sg271
Vvideo/mp4
p279
sa(dp280
g102
Vhttps://video.twimg.com/amplify_video/748606984358879232/pl/5th3qcl8n7gPVppH.mpd
p281
sg271
Vapplication/dash+xml
p282
sa(dp283
g102
Vhttps://video.twimg.com/amplify_video/748606984358879232/vid/320x180/N25A7cLfH5THrvW1.mp4
p284
sg275
I320000
sg271
Vvideo/mp4
p285
sassg35
V748606984358879232
p286
sg153
(dp287
g155
(dp288
g157
I360
sg158
Vfit
p289
sg160
I640
ssg161
(dp290
g157
I360
sg158
Vfit
p291
sg160
I640
ssg164
(dp292
g157
I360
sg158
Vfit
p293
sg160
I640
ssg167
(dp294
g157
I150
sg158
Vcrop
p295
sg160
I150
sssg33
(lp296
I48
aI71
asg171
Vvideo
p297
sg24
L748606984358879232L
sg173
Vhttp://pbs.twimg.com/media/CqEeSXwXYAActlt.jpg
p298
sassg118
(dp299
g120
Ven
p300
sg122
Vrecent
p301
sssg55
(dp302
g57
I00
sg58
I00
sg59
I01
sg60
I00
sg24
L2528186978L
sg61
Vhttps://abs.twimg.com/images/themes/theme1/bg.png
p303
sg63
I00
sg64
V333333
p304
sg66
Vhttps://pbs.twimg.com/profile_images/766490285870239746/IGMnIGL6_normal.jpg
p305
sg68
VDDEEF6
p306
sg26
(dp307
g71
(dp308
g43
(lp309
sssg74
I566
sg75
VC0DEED
p310
sg35
V2528186978
p311
sg78
VC0DEED
p312
sg80
I5
sg81
I00
sg82
Nsg83
I9895
sg71
VHuge Trump Supporter
p313
sg85
I1871
sg86
g84
sg87
V0084B4
p314
sg89
Vhttp://pbs.twimg.com/profile_images/766490285870239746/IGMnIGL6_normal.jpg
p315
sg91
I00
sg92
I01
sg237
Vhttps://pbs.twimg.com/profile_banners/2528186978/1471880357
p316
sg93
Vhttp://abs.twimg.com/images/themes/theme1/bg.png
p317
sg37
Vlcurry1949
p318
sg96
Ven
p319
sg98
I00
sg99
I5814
sg39
VBella
p320
sg101
I00
sg102
Nsg103
VTue May 27 20:12:32 +0000 2014
p321
sg105
I00
sg106
Nsg107
I00
sg108
I01
sg109
I00
ssg110
Nsg111
Nsg245
I00
sg96
Ven
p322
sg103
VMon Sep 05 05:11:20 +0000 2016
p323
sg115
Nsg117
Nsg248
(dp324
g136
(lp325
(dp326
g252
(dp327
g254
I00
sVsource_user
p328
(dp329
g57
I00
sg58
I00
sg59
I01
sg60
I00
sg24
L705902960967094272L
sg61
Nsg63
I00
sg64
V333333
p330
sg66
Vhttps://pbs.twimg.com/profile_images/760219109380526080/6rLqlLh1_normal.jpg
p331
sg68
VDDEEF6
p332
sg26
(dp333
g102
(dp334
g43
(lp335
(dp336
g102
Vhttps://t.co/Dhe1uAAgzt
p337
sg33
(lp338
I0
aI23
asg142
Vhttp://usafortrump2016.com
p339
sg144
Vusafortrump2016.com
p340
sassg71
(dp341
g43
(lp342
(dp343
g102
Vhttps://t.co/1w5vkX9BPV
p344
sg33
(lp345
I32
aI55
asg142
Vhttp://bit.ly/GooglePlayAmericaFirst
p346
sg144
Vbit.ly/GooglePlayAmer\u2026
p347
sa(dp348
g102
Vhttps://t.co/eh7YMNRXis
p349
sg33
(lp350
I63
aI86
asg142
Vhttps://appsto.re/us/ae7Qdb.i
p351
sg144
Vappsto.re/us/ae7Qdb.i
p352
sasssg74
I42375
sg75
VC0DEED
p353
sg35
V705902960967094272
p354
sg78
VF5F8FA
p355
sg80
I185
sg81
I00
sg82
I-14400
sg83
I8698
sg71
VOfficial campaign app! Android: https://t.co/1w5vkX9BPV Apple: https://t.co/eh7YMNRXis                            INVITATION CODE: YD42D
p356
sg85
I274
sg86
VTRUMP HQ
p357
sg87
V2B7BB9
p358
sg89
Vhttp://pbs.twimg.com/profile_images/760219109380526080/6rLqlLh1_normal.jpg
p359
sg91
I00
sg92
I00
sg237
Vhttps://pbs.twimg.com/profile_banners/705902960967094272/1470454001
p360
sg93
Nsg37
VUSAforTrump2016
p361
sg96
Ven
p362
sg98
I00
sg99
I8563
sg39
VVOTE TRUMP 2016
p363
sg101
I00
sg102
Vhttps://t.co/Dhe1uAAgzt
p364
sg103
VFri Mar 04 23:49:15 +0000 2016
p365
sg105
I00
sg106
VEastern Time (US & Canada)
p366
sg107
I00
sg108
I01
sg109
I00
ssg255
I01
sg71
g84
sg256
VThe Real Donald Trump.
p367
ssg139
L705902960967094272L
sg140
V772504908629155840
p368
sg142
Vhttps://twitter.com/USAforTrump2016/status/772504908629155840/video/1
p369
sg144
Vpic.twitter.com/m7U4ysDOwC
p370
sg102
Vhttps://t.co/m7U4ysDOwC
p371
sg147
Vhttps://pbs.twimg.com/media/CqEeSXwXYAActlt.jpg
p372
sg149
V705902960967094272
p373
sg151
L772504908629155840L
sg262
(dp374
g264
(lp375
I16
aI9
asg266
I507273
sg267
(lp376
(dp377
g102
Vhttps://video.twimg.com/amplify_video/748606984358879232/pl/5th3qcl8n7gPVppH.m3u8
p378
sg271
Vapplication/x-mpegURL
p379
sa(dp380
g102
Vhttps://video.twimg.com/amplify_video/748606984358879232/vid/640x360/1WMBAIA6Q5wp6zag.mp4
p381
sg275
I832000
sg271
Vvideo/mp4
p382
sa(dp383
g102
Vhttps://video.twimg.com/amplify_video/748606984358879232/vid/1280x720/Ft7WOuY91BSdUUUC.mp4
p384
sg275
I2176000
sg271
Vvideo/mp4
p385
sa(dp386
g102
Vhttps://video.twimg.com/amplify_video/748606984358879232/pl/5th3qcl8n7gPVppH.mpd
p387
sg271
Vapplication/dash+xml
p388
sa(dp389
g102
Vhttps://video.twimg.com/amplify_video/748606984358879232/vid/320x180/N25A7cLfH5THrvW1.mp4
p390
sg275
I320000
sg271
Vvideo/mp4
p391
sassg35
V748606984358879232
p392
sg153
(dp393
g155
(dp394
g157
I360
sg158
Vfit
p395
sg160
I640
ssg161
(dp396
g157
I360
sg158
Vfit
p397
sg160
I640
ssg164
(dp398
g157
I360
sg158
Vfit
p399
sg160
I640
ssg167
(dp400
g157
I150
sg158
Vcrop
p401
sg160
I150
sssg33
(lp402
I69
aI92
asg171
Vvideo
p403
sg24
L748606984358879232L
sg173
Vhttp://pbs.twimg.com/media/CqEeSXwXYAActlt.jpg
p404
sassg118
(dp405
g120
Ven
p406
sg122
Vrecent
p407
ssas.